
bd:     file format elf64-x86-64


Disassembly of section .init:

0000000000002000 <.init>:
    2000:	48 83 ec 08          	sub    rsp,0x8
    2004:	48 8b 05 c5 7f 00 00 	mov    rax,QWORD PTR [rip+0x7fc5]        # 9fd0 <__cxa_finalize@plt+0x7b20>
    200b:	48 85 c0             	test   rax,rax
    200e:	74 02                	je     2012 <__strcat_chk@plt-0x1e>
    2010:	ff d0                	call   rax
    2012:	48 83 c4 08          	add    rsp,0x8
    2016:	c3                   	ret    

Disassembly of section .plt:

0000000000002020 <__strcat_chk@plt-0x10>:
    2020:	ff 35 e2 7f 00 00    	push   QWORD PTR [rip+0x7fe2]        # a008 <__cxa_finalize@plt+0x7b58>
    2026:	ff 25 e4 7f 00 00    	jmp    QWORD PTR [rip+0x7fe4]        # a010 <__cxa_finalize@plt+0x7b60>
    202c:	0f 1f 40 00          	nop    DWORD PTR [rax+0x0]

0000000000002030 <__strcat_chk@plt>:
    2030:	ff 25 e2 7f 00 00    	jmp    QWORD PTR [rip+0x7fe2]        # a018 <__cxa_finalize@plt+0x7b68>
    2036:	68 00 00 00 00       	push   0x0
    203b:	e9 e0 ff ff ff       	jmp    2020 <__strcat_chk@plt-0x10>

0000000000002040 <getenv@plt>:
    2040:	ff 25 da 7f 00 00    	jmp    QWORD PTR [rip+0x7fda]        # a020 <__cxa_finalize@plt+0x7b70>
    2046:	68 01 00 00 00       	push   0x1
    204b:	e9 d0 ff ff ff       	jmp    2020 <__strcat_chk@plt-0x10>

0000000000002050 <__snprintf_chk@plt>:
    2050:	ff 25 d2 7f 00 00    	jmp    QWORD PTR [rip+0x7fd2]        # a028 <__cxa_finalize@plt+0x7b78>
    2056:	68 02 00 00 00       	push   0x2
    205b:	e9 c0 ff ff ff       	jmp    2020 <__strcat_chk@plt-0x10>

0000000000002060 <raise@plt>:
    2060:	ff 25 ca 7f 00 00    	jmp    QWORD PTR [rip+0x7fca]        # a030 <__cxa_finalize@plt+0x7b80>
    2066:	68 03 00 00 00       	push   0x3
    206b:	e9 b0 ff ff ff       	jmp    2020 <__strcat_chk@plt-0x10>

0000000000002070 <free@plt>:
    2070:	ff 25 c2 7f 00 00    	jmp    QWORD PTR [rip+0x7fc2]        # a038 <__cxa_finalize@plt+0x7b88>
    2076:	68 04 00 00 00       	push   0x4
    207b:	e9 a0 ff ff ff       	jmp    2020 <__strcat_chk@plt-0x10>

0000000000002080 <__vfprintf_chk@plt>:
    2080:	ff 25 ba 7f 00 00    	jmp    QWORD PTR [rip+0x7fba]        # a040 <__cxa_finalize@plt+0x7b90>
    2086:	68 05 00 00 00       	push   0x5
    208b:	e9 90 ff ff ff       	jmp    2020 <__strcat_chk@plt-0x10>

0000000000002090 <__errno_location@plt>:
    2090:	ff 25 b2 7f 00 00    	jmp    QWORD PTR [rip+0x7fb2]        # a048 <__cxa_finalize@plt+0x7b98>
    2096:	68 06 00 00 00       	push   0x6
    209b:	e9 80 ff ff ff       	jmp    2020 <__strcat_chk@plt-0x10>

00000000000020a0 <unlink@plt>:
    20a0:	ff 25 aa 7f 00 00    	jmp    QWORD PTR [rip+0x7faa]        # a050 <__cxa_finalize@plt+0x7ba0>
    20a6:	68 07 00 00 00       	push   0x7
    20ab:	e9 70 ff ff ff       	jmp    2020 <__strcat_chk@plt-0x10>

00000000000020b0 <strncpy@plt>:
    20b0:	ff 25 a2 7f 00 00    	jmp    QWORD PTR [rip+0x7fa2]        # a058 <__cxa_finalize@plt+0x7ba8>
    20b6:	68 08 00 00 00       	push   0x8
    20bb:	e9 60 ff ff ff       	jmp    2020 <__strcat_chk@plt-0x10>

00000000000020c0 <strncmp@plt>:
    20c0:	ff 25 9a 7f 00 00    	jmp    QWORD PTR [rip+0x7f9a]        # a060 <__cxa_finalize@plt+0x7bb0>
    20c6:	68 09 00 00 00       	push   0x9
    20cb:	e9 50 ff ff ff       	jmp    2020 <__strcat_chk@plt-0x10>

00000000000020d0 <strcpy@plt>:
    20d0:	ff 25 92 7f 00 00    	jmp    QWORD PTR [rip+0x7f92]        # a068 <__cxa_finalize@plt+0x7bb8>
    20d6:	68 0a 00 00 00       	push   0xa
    20db:	e9 40 ff ff ff       	jmp    2020 <__strcat_chk@plt-0x10>

00000000000020e0 <inflate@plt>:
    20e0:	ff 25 8a 7f 00 00    	jmp    QWORD PTR [rip+0x7f8a]        # a070 <__cxa_finalize@plt+0x7bc0>
    20e6:	68 0b 00 00 00       	push   0xb
    20eb:	e9 30 ff ff ff       	jmp    2020 <__strcat_chk@plt-0x10>

00000000000020f0 <mkdir@plt>:
    20f0:	ff 25 82 7f 00 00    	jmp    QWORD PTR [rip+0x7f82]        # a078 <__cxa_finalize@plt+0x7bc8>
    20f6:	68 0c 00 00 00       	push   0xc
    20fb:	e9 20 ff ff ff       	jmp    2020 <__strcat_chk@plt-0x10>

0000000000002100 <ferror@plt>:
    2100:	ff 25 7a 7f 00 00    	jmp    QWORD PTR [rip+0x7f7a]        # a080 <__cxa_finalize@plt+0x7bd0>
    2106:	68 0d 00 00 00       	push   0xd
    210b:	e9 10 ff ff ff       	jmp    2020 <__strcat_chk@plt-0x10>

0000000000002110 <fread@plt>:
    2110:	ff 25 72 7f 00 00    	jmp    QWORD PTR [rip+0x7f72]        # a088 <__cxa_finalize@plt+0x7bd8>
    2116:	68 0e 00 00 00       	push   0xe
    211b:	e9 00 ff ff ff       	jmp    2020 <__strcat_chk@plt-0x10>

0000000000002120 <mbstowcs@plt>:
    2120:	ff 25 6a 7f 00 00    	jmp    QWORD PTR [rip+0x7f6a]        # a090 <__cxa_finalize@plt+0x7be0>
    2126:	68 0f 00 00 00       	push   0xf
    212b:	e9 f0 fe ff ff       	jmp    2020 <__strcat_chk@plt-0x10>

0000000000002130 <readlink@plt>:
    2130:	ff 25 62 7f 00 00    	jmp    QWORD PTR [rip+0x7f62]        # a098 <__cxa_finalize@plt+0x7be8>
    2136:	68 10 00 00 00       	push   0x10
    213b:	e9 e0 fe ff ff       	jmp    2020 <__strcat_chk@plt-0x10>

0000000000002140 <setenv@plt>:
    2140:	ff 25 5a 7f 00 00    	jmp    QWORD PTR [rip+0x7f5a]        # a0a0 <__cxa_finalize@plt+0x7bf0>
    2146:	68 11 00 00 00       	push   0x11
    214b:	e9 d0 fe ff ff       	jmp    2020 <__strcat_chk@plt-0x10>

0000000000002150 <getpid@plt>:
    2150:	ff 25 52 7f 00 00    	jmp    QWORD PTR [rip+0x7f52]        # a0a8 <__cxa_finalize@plt+0x7bf8>
    2156:	68 12 00 00 00       	push   0x12
    215b:	e9 c0 fe ff ff       	jmp    2020 <__strcat_chk@plt-0x10>

0000000000002160 <fclose@plt>:
    2160:	ff 25 4a 7f 00 00    	jmp    QWORD PTR [rip+0x7f4a]        # a0b0 <__cxa_finalize@plt+0x7c00>
    2166:	68 13 00 00 00       	push   0x13
    216b:	e9 b0 fe ff ff       	jmp    2020 <__strcat_chk@plt-0x10>

0000000000002170 <opendir@plt>:
    2170:	ff 25 42 7f 00 00    	jmp    QWORD PTR [rip+0x7f42]        # a0b8 <__cxa_finalize@plt+0x7c08>
    2176:	68 14 00 00 00       	push   0x14
    217b:	e9 a0 fe ff ff       	jmp    2020 <__strcat_chk@plt-0x10>

0000000000002180 <stpcpy@plt>:
    2180:	ff 25 3a 7f 00 00    	jmp    QWORD PTR [rip+0x7f3a]        # a0c0 <__cxa_finalize@plt+0x7c10>
    2186:	68 15 00 00 00       	push   0x15
    218b:	e9 90 fe ff ff       	jmp    2020 <__strcat_chk@plt-0x10>

0000000000002190 <rmdir@plt>:
    2190:	ff 25 32 7f 00 00    	jmp    QWORD PTR [rip+0x7f32]        # a0c8 <__cxa_finalize@plt+0x7c18>
    2196:	68 16 00 00 00       	push   0x16
    219b:	e9 80 fe ff ff       	jmp    2020 <__strcat_chk@plt-0x10>

00000000000021a0 <strlen@plt>:
    21a0:	ff 25 2a 7f 00 00    	jmp    QWORD PTR [rip+0x7f2a]        # a0d0 <__cxa_finalize@plt+0x7c20>
    21a6:	68 17 00 00 00       	push   0x17
    21ab:	e9 70 fe ff ff       	jmp    2020 <__strcat_chk@plt-0x10>

00000000000021b0 <setbuf@plt>:
    21b0:	ff 25 22 7f 00 00    	jmp    QWORD PTR [rip+0x7f22]        # a0d8 <__cxa_finalize@plt+0x7c28>
    21b6:	68 18 00 00 00       	push   0x18
    21bb:	e9 60 fe ff ff       	jmp    2020 <__strcat_chk@plt-0x10>

00000000000021c0 <strchr@plt>:
    21c0:	ff 25 1a 7f 00 00    	jmp    QWORD PTR [rip+0x7f1a]        # a0e0 <__cxa_finalize@plt+0x7c30>
    21c6:	68 19 00 00 00       	push   0x19
    21cb:	e9 50 fe ff ff       	jmp    2020 <__strcat_chk@plt-0x10>

00000000000021d0 <snprintf@plt>:
    21d0:	ff 25 12 7f 00 00    	jmp    QWORD PTR [rip+0x7f12]        # a0e8 <__cxa_finalize@plt+0x7c38>
    21d6:	68 1a 00 00 00       	push   0x1a
    21db:	e9 40 fe ff ff       	jmp    2020 <__strcat_chk@plt-0x10>

00000000000021e0 <dirname@plt>:
    21e0:	ff 25 0a 7f 00 00    	jmp    QWORD PTR [rip+0x7f0a]        # a0f0 <__cxa_finalize@plt+0x7c40>
    21e6:	68 1b 00 00 00       	push   0x1b
    21eb:	e9 30 fe ff ff       	jmp    2020 <__strcat_chk@plt-0x10>

00000000000021f0 <strncat@plt>:
    21f0:	ff 25 02 7f 00 00    	jmp    QWORD PTR [rip+0x7f02]        # a0f8 <__cxa_finalize@plt+0x7c48>
    21f6:	68 1c 00 00 00       	push   0x1c
    21fb:	e9 20 fe ff ff       	jmp    2020 <__strcat_chk@plt-0x10>

0000000000002200 <__realpath_chk@plt>:
    2200:	ff 25 fa 7e 00 00    	jmp    QWORD PTR [rip+0x7efa]        # a100 <__cxa_finalize@plt+0x7c50>
    2206:	68 1d 00 00 00       	push   0x1d
    220b:	e9 10 fe ff ff       	jmp    2020 <__strcat_chk@plt-0x10>

0000000000002210 <closedir@plt>:
    2210:	ff 25 f2 7e 00 00    	jmp    QWORD PTR [rip+0x7ef2]        # a108 <__cxa_finalize@plt+0x7c58>
    2216:	68 1e 00 00 00       	push   0x1e
    221b:	e9 00 fe ff ff       	jmp    2020 <__strcat_chk@plt-0x10>

0000000000002220 <wcsncpy@plt>:
    2220:	ff 25 ea 7e 00 00    	jmp    QWORD PTR [rip+0x7eea]        # a110 <__cxa_finalize@plt+0x7c60>
    2226:	68 1f 00 00 00       	push   0x1f
    222b:	e9 f0 fd ff ff       	jmp    2020 <__strcat_chk@plt-0x10>

0000000000002230 <calloc@plt>:
    2230:	ff 25 e2 7e 00 00    	jmp    QWORD PTR [rip+0x7ee2]        # a118 <__cxa_finalize@plt+0x7c68>
    2236:	68 20 00 00 00       	push   0x20
    223b:	e9 e0 fd ff ff       	jmp    2020 <__strcat_chk@plt-0x10>

0000000000002240 <strcmp@plt>:
    2240:	ff 25 da 7e 00 00    	jmp    QWORD PTR [rip+0x7eda]        # a120 <__cxa_finalize@plt+0x7c70>
    2246:	68 21 00 00 00       	push   0x21
    224b:	e9 d0 fd ff ff       	jmp    2020 <__strcat_chk@plt-0x10>

0000000000002250 <signal@plt>:
    2250:	ff 25 d2 7e 00 00    	jmp    QWORD PTR [rip+0x7ed2]        # a128 <__cxa_finalize@plt+0x7c78>
    2256:	68 22 00 00 00       	push   0x22
    225b:	e9 c0 fd ff ff       	jmp    2020 <__strcat_chk@plt-0x10>

0000000000002260 <__memcpy_chk@plt>:
    2260:	ff 25 ca 7e 00 00    	jmp    QWORD PTR [rip+0x7eca]        # a130 <__cxa_finalize@plt+0x7c80>
    2266:	68 23 00 00 00       	push   0x23
    226b:	e9 b0 fd ff ff       	jmp    2020 <__strcat_chk@plt-0x10>

0000000000002270 <ftell@plt>:
    2270:	ff 25 c2 7e 00 00    	jmp    QWORD PTR [rip+0x7ec2]        # a138 <__cxa_finalize@plt+0x7c88>
    2276:	68 24 00 00 00       	push   0x24
    227b:	e9 a0 fd ff ff       	jmp    2020 <__strcat_chk@plt-0x10>

0000000000002280 <feof@plt>:
    2280:	ff 25 ba 7e 00 00    	jmp    QWORD PTR [rip+0x7eba]        # a140 <__cxa_finalize@plt+0x7c90>
    2286:	68 25 00 00 00       	push   0x25
    228b:	e9 90 fd ff ff       	jmp    2020 <__strcat_chk@plt-0x10>

0000000000002290 <clearerr@plt>:
    2290:	ff 25 b2 7e 00 00    	jmp    QWORD PTR [rip+0x7eb2]        # a148 <__cxa_finalize@plt+0x7c98>
    2296:	68 26 00 00 00       	push   0x26
    229b:	e9 80 fd ff ff       	jmp    2020 <__strcat_chk@plt-0x10>

00000000000022a0 <realpath@plt>:
    22a0:	ff 25 aa 7e 00 00    	jmp    QWORD PTR [rip+0x7eaa]        # a150 <__cxa_finalize@plt+0x7ca0>
    22a6:	68 27 00 00 00       	push   0x27
    22ab:	e9 70 fd ff ff       	jmp    2020 <__strcat_chk@plt-0x10>

00000000000022b0 <prctl@plt>:
    22b0:	ff 25 a2 7e 00 00    	jmp    QWORD PTR [rip+0x7ea2]        # a158 <__cxa_finalize@plt+0x7ca8>
    22b6:	68 28 00 00 00       	push   0x28
    22bb:	e9 60 fd ff ff       	jmp    2020 <__strcat_chk@plt-0x10>

00000000000022c0 <inflateEnd@plt>:
    22c0:	ff 25 9a 7e 00 00    	jmp    QWORD PTR [rip+0x7e9a]        # a160 <__cxa_finalize@plt+0x7cb0>
    22c6:	68 29 00 00 00       	push   0x29
    22cb:	e9 50 fd ff ff       	jmp    2020 <__strcat_chk@plt-0x10>

00000000000022d0 <kill@plt>:
    22d0:	ff 25 92 7e 00 00    	jmp    QWORD PTR [rip+0x7e92]        # a168 <__cxa_finalize@plt+0x7cb8>
    22d6:	68 2a 00 00 00       	push   0x2a
    22db:	e9 40 fd ff ff       	jmp    2020 <__strcat_chk@plt-0x10>

00000000000022e0 <__xpg_basename@plt>:
    22e0:	ff 25 8a 7e 00 00    	jmp    QWORD PTR [rip+0x7e8a]        # a170 <__cxa_finalize@plt+0x7cc0>
    22e6:	68 2b 00 00 00       	push   0x2b
    22eb:	e9 30 fd ff ff       	jmp    2020 <__strcat_chk@plt-0x10>

00000000000022f0 <fileno@plt>:
    22f0:	ff 25 82 7e 00 00    	jmp    QWORD PTR [rip+0x7e82]        # a178 <__cxa_finalize@plt+0x7cc8>
    22f6:	68 2c 00 00 00       	push   0x2c
    22fb:	e9 20 fd ff ff       	jmp    2020 <__strcat_chk@plt-0x10>

0000000000002300 <__xstat@plt>:
    2300:	ff 25 7a 7e 00 00    	jmp    QWORD PTR [rip+0x7e7a]        # a180 <__cxa_finalize@plt+0x7cd0>
    2306:	68 2d 00 00 00       	push   0x2d
    230b:	e9 10 fd ff ff       	jmp    2020 <__strcat_chk@plt-0x10>

0000000000002310 <readdir@plt>:
    2310:	ff 25 72 7e 00 00    	jmp    QWORD PTR [rip+0x7e72]        # a188 <__cxa_finalize@plt+0x7cd8>
    2316:	68 2e 00 00 00       	push   0x2e
    231b:	e9 00 fd ff ff       	jmp    2020 <__strcat_chk@plt-0x10>

0000000000002320 <dlopen@plt>:
    2320:	ff 25 6a 7e 00 00    	jmp    QWORD PTR [rip+0x7e6a]        # a190 <__cxa_finalize@plt+0x7ce0>
    2326:	68 2f 00 00 00       	push   0x2f
    232b:	e9 f0 fc ff ff       	jmp    2020 <__strcat_chk@plt-0x10>

0000000000002330 <malloc@plt>:
    2330:	ff 25 62 7e 00 00    	jmp    QWORD PTR [rip+0x7e62]        # a198 <__cxa_finalize@plt+0x7ce8>
    2336:	68 30 00 00 00       	push   0x30
    233b:	e9 e0 fc ff ff       	jmp    2020 <__strcat_chk@plt-0x10>

0000000000002340 <fflush@plt>:
    2340:	ff 25 5a 7e 00 00    	jmp    QWORD PTR [rip+0x7e5a]        # a1a0 <__cxa_finalize@plt+0x7cf0>
    2346:	68 31 00 00 00       	push   0x31
    234b:	e9 d0 fc ff ff       	jmp    2020 <__strcat_chk@plt-0x10>

0000000000002350 <nl_langinfo@plt>:
    2350:	ff 25 52 7e 00 00    	jmp    QWORD PTR [rip+0x7e52]        # a1a8 <__cxa_finalize@plt+0x7cf8>
    2356:	68 32 00 00 00       	push   0x32
    235b:	e9 c0 fc ff ff       	jmp    2020 <__strcat_chk@plt-0x10>

0000000000002360 <fseek@plt>:
    2360:	ff 25 4a 7e 00 00    	jmp    QWORD PTR [rip+0x7e4a]        # a1b0 <__cxa_finalize@plt+0x7d00>
    2366:	68 33 00 00 00       	push   0x33
    236b:	e9 b0 fc ff ff       	jmp    2020 <__strcat_chk@plt-0x10>

0000000000002370 <__vsnprintf_chk@plt>:
    2370:	ff 25 42 7e 00 00    	jmp    QWORD PTR [rip+0x7e42]        # a1b8 <__cxa_finalize@plt+0x7d08>
    2376:	68 34 00 00 00       	push   0x34
    237b:	e9 a0 fc ff ff       	jmp    2020 <__strcat_chk@plt-0x10>

0000000000002380 <__strcpy_chk@plt>:
    2380:	ff 25 3a 7e 00 00    	jmp    QWORD PTR [rip+0x7e3a]        # a1c0 <__cxa_finalize@plt+0x7d10>
    2386:	68 35 00 00 00       	push   0x35
    238b:	e9 90 fc ff ff       	jmp    2020 <__strcat_chk@plt-0x10>

0000000000002390 <mkdtemp@plt>:
    2390:	ff 25 32 7e 00 00    	jmp    QWORD PTR [rip+0x7e32]        # a1c8 <__cxa_finalize@plt+0x7d18>
    2396:	68 36 00 00 00       	push   0x36
    239b:	e9 80 fc ff ff       	jmp    2020 <__strcat_chk@plt-0x10>

00000000000023a0 <setlocale@plt>:
    23a0:	ff 25 2a 7e 00 00    	jmp    QWORD PTR [rip+0x7e2a]        # a1d0 <__cxa_finalize@plt+0x7d20>
    23a6:	68 37 00 00 00       	push   0x37
    23ab:	e9 70 fc ff ff       	jmp    2020 <__strcat_chk@plt-0x10>

00000000000023b0 <fchmod@plt>:
    23b0:	ff 25 22 7e 00 00    	jmp    QWORD PTR [rip+0x7e22]        # a1d8 <__cxa_finalize@plt+0x7d28>
    23b6:	68 38 00 00 00       	push   0x38
    23bb:	e9 60 fc ff ff       	jmp    2020 <__strcat_chk@plt-0x10>

00000000000023c0 <inflateInit_@plt>:
    23c0:	ff 25 1a 7e 00 00    	jmp    QWORD PTR [rip+0x7e1a]        # a1e0 <__cxa_finalize@plt+0x7d30>
    23c6:	68 39 00 00 00       	push   0x39
    23cb:	e9 50 fc ff ff       	jmp    2020 <__strcat_chk@plt-0x10>

00000000000023d0 <waitpid@plt>:
    23d0:	ff 25 12 7e 00 00    	jmp    QWORD PTR [rip+0x7e12]        # a1e8 <__cxa_finalize@plt+0x7d38>
    23d6:	68 3a 00 00 00       	push   0x3a
    23db:	e9 40 fc ff ff       	jmp    2020 <__strcat_chk@plt-0x10>

00000000000023e0 <fopen@plt>:
    23e0:	ff 25 0a 7e 00 00    	jmp    QWORD PTR [rip+0x7e0a]        # a1f0 <__cxa_finalize@plt+0x7d40>
    23e6:	68 3b 00 00 00       	push   0x3b
    23eb:	e9 30 fc ff ff       	jmp    2020 <__strcat_chk@plt-0x10>

00000000000023f0 <perror@plt>:
    23f0:	ff 25 02 7e 00 00    	jmp    QWORD PTR [rip+0x7e02]        # a1f8 <__cxa_finalize@plt+0x7d48>
    23f6:	68 3c 00 00 00       	push   0x3c
    23fb:	e9 20 fc ff ff       	jmp    2020 <__strcat_chk@plt-0x10>

0000000000002400 <strtok@plt>:
    2400:	ff 25 fa 7d 00 00    	jmp    QWORD PTR [rip+0x7dfa]        # a200 <__cxa_finalize@plt+0x7d50>
    2406:	68 3d 00 00 00       	push   0x3d
    240b:	e9 10 fc ff ff       	jmp    2020 <__strcat_chk@plt-0x10>

0000000000002410 <unsetenv@plt>:
    2410:	ff 25 f2 7d 00 00    	jmp    QWORD PTR [rip+0x7df2]        # a208 <__cxa_finalize@plt+0x7d58>
    2416:	68 3e 00 00 00       	push   0x3e
    241b:	e9 00 fc ff ff       	jmp    2020 <__strcat_chk@plt-0x10>

0000000000002420 <execvp@plt>:
    2420:	ff 25 ea 7d 00 00    	jmp    QWORD PTR [rip+0x7dea]        # a210 <__cxa_finalize@plt+0x7d60>
    2426:	68 3f 00 00 00       	push   0x3f
    242b:	e9 f0 fb ff ff       	jmp    2020 <__strcat_chk@plt-0x10>

0000000000002430 <strcat@plt>:
    2430:	ff 25 e2 7d 00 00    	jmp    QWORD PTR [rip+0x7de2]        # a218 <__cxa_finalize@plt+0x7d68>
    2436:	68 40 00 00 00       	push   0x40
    243b:	e9 e0 fb ff ff       	jmp    2020 <__strcat_chk@plt-0x10>

0000000000002440 <fwrite@plt>:
    2440:	ff 25 da 7d 00 00    	jmp    QWORD PTR [rip+0x7dda]        # a220 <__cxa_finalize@plt+0x7d70>
    2446:	68 41 00 00 00       	push   0x41
    244b:	e9 d0 fb ff ff       	jmp    2020 <__strcat_chk@plt-0x10>

0000000000002450 <__fprintf_chk@plt>:
    2450:	ff 25 d2 7d 00 00    	jmp    QWORD PTR [rip+0x7dd2]        # a228 <__cxa_finalize@plt+0x7d78>
    2456:	68 42 00 00 00       	push   0x42
    245b:	e9 c0 fb ff ff       	jmp    2020 <__strcat_chk@plt-0x10>

0000000000002460 <strdup@plt>:
    2460:	ff 25 ca 7d 00 00    	jmp    QWORD PTR [rip+0x7dca]        # a230 <__cxa_finalize@plt+0x7d80>
    2466:	68 43 00 00 00       	push   0x43
    246b:	e9 b0 fb ff ff       	jmp    2020 <__strcat_chk@plt-0x10>

0000000000002470 <strerror@plt>:
    2470:	ff 25 c2 7d 00 00    	jmp    QWORD PTR [rip+0x7dc2]        # a238 <__cxa_finalize@plt+0x7d88>
    2476:	68 44 00 00 00       	push   0x44
    247b:	e9 a0 fb ff ff       	jmp    2020 <__strcat_chk@plt-0x10>

0000000000002480 <dlsym@plt>:
    2480:	ff 25 ba 7d 00 00    	jmp    QWORD PTR [rip+0x7dba]        # a240 <__cxa_finalize@plt+0x7d90>
    2486:	68 45 00 00 00       	push   0x45
    248b:	e9 90 fb ff ff       	jmp    2020 <__strcat_chk@plt-0x10>

0000000000002490 <fork@plt>:
    2490:	ff 25 b2 7d 00 00    	jmp    QWORD PTR [rip+0x7db2]        # a248 <__cxa_finalize@plt+0x7d98>
    2496:	68 46 00 00 00       	push   0x46
    249b:	e9 80 fb ff ff       	jmp    2020 <__strcat_chk@plt-0x10>

00000000000024a0 <dlerror@plt>:
    24a0:	ff 25 aa 7d 00 00    	jmp    QWORD PTR [rip+0x7daa]        # a250 <__cxa_finalize@plt+0x7da0>
    24a6:	68 47 00 00 00       	push   0x47
    24ab:	e9 70 fb ff ff       	jmp    2020 <__strcat_chk@plt-0x10>

Disassembly of section .plt.got:

00000000000024b0 <__cxa_finalize@plt>:
    24b0:	ff 25 2a 7b 00 00    	jmp    QWORD PTR [rip+0x7b2a]        # 9fe0 <__cxa_finalize@plt+0x7b30>
    24b6:	66 90                	xchg   ax,ax

Disassembly of section .text:

00000000000024c0 <.text>:
    24c0:	e9 eb 14 00 00       	jmp    39b0 <__cxa_finalize@plt+0x1500>
    24c5:	66 2e 0f 1f 84 00 00 	nop    WORD PTR cs:[rax+rax*1+0x0]
    24cc:	00 00 00 
    24cf:	90                   	nop
    24d0:	31 ed                	xor    ebp,ebp
    24d2:	49 89 d1             	mov    r9,rdx
    24d5:	5e                   	pop    rsi
    24d6:	48 89 e2             	mov    rdx,rsp
    24d9:	48 83 e4 f0          	and    rsp,0xfffffffffffffff0
    24dd:	50                   	push   rax
    24de:	54                   	push   rsp
    24df:	4c 8d 05 6a 39 00 00 	lea    r8,[rip+0x396a]        # 5e50 <__cxa_finalize@plt+0x39a0>
    24e6:	48 8d 0d 03 39 00 00 	lea    rcx,[rip+0x3903]        # 5df0 <__cxa_finalize@plt+0x3940>
    24ed:	48 8d 3d cc ff ff ff 	lea    rdi,[rip+0xffffffffffffffcc]        # 24c0 <__cxa_finalize@plt+0x10>
    24f4:	ff 15 ce 7a 00 00    	call   QWORD PTR [rip+0x7ace]        # 9fc8 <__cxa_finalize@plt+0x7b18>
    24fa:	f4                   	hlt    
    24fb:	0f 1f 44 00 00       	nop    DWORD PTR [rax+rax*1+0x0]
    2500:	48 8d 3d 61 7d 00 00 	lea    rdi,[rip+0x7d61]        # a268 <__cxa_finalize@plt+0x7db8>
    2507:	48 8d 05 5a 7d 00 00 	lea    rax,[rip+0x7d5a]        # a268 <__cxa_finalize@plt+0x7db8>
    250e:	48 39 f8             	cmp    rax,rdi
    2511:	74 15                	je     2528 <__cxa_finalize@plt+0x78>
    2513:	48 8b 05 a6 7a 00 00 	mov    rax,QWORD PTR [rip+0x7aa6]        # 9fc0 <__cxa_finalize@plt+0x7b10>
    251a:	48 85 c0             	test   rax,rax
    251d:	74 09                	je     2528 <__cxa_finalize@plt+0x78>
    251f:	ff e0                	jmp    rax
    2521:	0f 1f 80 00 00 00 00 	nop    DWORD PTR [rax+0x0]
    2528:	c3                   	ret    
    2529:	0f 1f 80 00 00 00 00 	nop    DWORD PTR [rax+0x0]
    2530:	48 8d 3d 31 7d 00 00 	lea    rdi,[rip+0x7d31]        # a268 <__cxa_finalize@plt+0x7db8>
    2537:	48 8d 35 2a 7d 00 00 	lea    rsi,[rip+0x7d2a]        # a268 <__cxa_finalize@plt+0x7db8>
    253e:	48 29 fe             	sub    rsi,rdi
    2541:	48 c1 fe 03          	sar    rsi,0x3
    2545:	48 89 f0             	mov    rax,rsi
    2548:	48 c1 e8 3f          	shr    rax,0x3f
    254c:	48 01 c6             	add    rsi,rax
    254f:	48 d1 fe             	sar    rsi,1
    2552:	74 14                	je     2568 <__cxa_finalize@plt+0xb8>
    2554:	48 8b 05 7d 7a 00 00 	mov    rax,QWORD PTR [rip+0x7a7d]        # 9fd8 <__cxa_finalize@plt+0x7b28>
    255b:	48 85 c0             	test   rax,rax
    255e:	74 08                	je     2568 <__cxa_finalize@plt+0xb8>
    2560:	ff e0                	jmp    rax
    2562:	66 0f 1f 44 00 00    	nop    WORD PTR [rax+rax*1+0x0]
    2568:	c3                   	ret    
    2569:	0f 1f 80 00 00 00 00 	nop    DWORD PTR [rax+0x0]
    2570:	80 3d 31 7d 00 00 00 	cmp    BYTE PTR [rip+0x7d31],0x0        # a2a8 <stderr@@GLIBC_2.2.5+0x8>
    2577:	75 2f                	jne    25a8 <__cxa_finalize@plt+0xf8>
    2579:	55                   	push   rbp
    257a:	48 83 3d 5e 7a 00 00 	cmp    QWORD PTR [rip+0x7a5e],0x0        # 9fe0 <__cxa_finalize@plt+0x7b30>
    2581:	00 
    2582:	48 89 e5             	mov    rbp,rsp
    2585:	74 0c                	je     2593 <__cxa_finalize@plt+0xe3>
    2587:	48 8b 3d d2 7c 00 00 	mov    rdi,QWORD PTR [rip+0x7cd2]        # a260 <__cxa_finalize@plt+0x7db0>
    258e:	e8 1d ff ff ff       	call   24b0 <__cxa_finalize@plt>
    2593:	e8 68 ff ff ff       	call   2500 <__cxa_finalize@plt+0x50>
    2598:	c6 05 09 7d 00 00 01 	mov    BYTE PTR [rip+0x7d09],0x1        # a2a8 <stderr@@GLIBC_2.2.5+0x8>
    259f:	5d                   	pop    rbp
    25a0:	c3                   	ret    
    25a1:	0f 1f 80 00 00 00 00 	nop    DWORD PTR [rax+0x0]
    25a8:	c3                   	ret    
    25a9:	0f 1f 80 00 00 00 00 	nop    DWORD PTR [rax+0x0]
    25b0:	e9 7b ff ff ff       	jmp    2530 <__cxa_finalize@plt+0x80>
    25b5:	66 2e 0f 1f 84 00 00 	nop    WORD PTR cs:[rax+rax*1+0x0]
    25bc:	00 00 00 
    25bf:	90                   	nop
    25c0:	41 54                	push   r12
    25c2:	31 d2                	xor    edx,edx
    25c4:	55                   	push   rbp
    25c5:	48 89 fd             	mov    rbp,rdi
    25c8:	53                   	push   rbx
    25c9:	8d 9e a8 ef ff ff    	lea    ebx,[rsi-0x1058]
    25cf:	48 63 db             	movsxd rbx,ebx
    25d2:	48 89 de             	mov    rsi,rbx
    25d5:	48 81 ec 60 10 00 00 	sub    rsp,0x1060
    25dc:	48 8b 3f             	mov    rdi,QWORD PTR [rdi]
    25df:	e8 7c fd ff ff       	call   2360 <fseek@plt>
    25e4:	85 c0                	test   eax,eax
    25e6:	0f 85 b4 00 00 00    	jne    26a0 <__cxa_finalize@plt+0x1f0>
    25ec:	49 89 e4             	mov    r12,rsp
    25ef:	48 8b 4d 00          	mov    rcx,QWORD PTR [rbp+0x0]
    25f3:	ba 01 00 00 00       	mov    edx,0x1
    25f8:	be 58 10 00 00       	mov    esi,0x1058
    25fd:	4c 89 e7             	mov    rdi,r12
    2600:	e8 0b fb ff ff       	call   2110 <fread@plt>
    2605:	48 85 c0             	test   rax,rax
    2608:	0f 84 92 00 00 00    	je     26a0 <__cxa_finalize@plt+0x1f0>
    260e:	49 8d 94 24 00 10 00 	lea    rdx,[r12+0x1000]
    2615:	00 
    2616:	4c 8d 05 e7 39 00 00 	lea    r8,[rip+0x39e7]        # 6004 <__cxa_finalize@plt+0x3b54>
    261d:	4c 8d 4c 24 ff       	lea    r9,[rsp-0x1]
    2622:	eb 0d                	jmp    2631 <__cxa_finalize@plt+0x181>
    2624:	0f 1f 40 00          	nop    DWORD PTR [rax+0x0]
    2628:	48 83 ea 01          	sub    rdx,0x1
    262c:	4c 39 ca             	cmp    rdx,r9
    262f:	74 6f                	je     26a0 <__cxa_finalize@plt+0x1f0>
    2631:	b9 08 00 00 00       	mov    ecx,0x8
    2636:	4c 89 c6             	mov    rsi,r8
    2639:	48 89 d7             	mov    rdi,rdx
    263c:	f3 a6                	repz cmps BYTE PTR ds:[rsi],BYTE PTR es:[rdi]
    263e:	0f 97 c0             	seta   al
    2641:	1c 00                	sbb    al,0x0
    2643:	0f be c0             	movsx  eax,al
    2646:	85 c0                	test   eax,eax
    2648:	75 de                	jne    2628 <__cxa_finalize@plt+0x178>
    264a:	f3 0f 6f 02          	movdqu xmm0,XMMWORD PTR [rdx]
    264e:	48 8b 72 50          	mov    rsi,QWORD PTR [rdx+0x50]
    2652:	f3 0f 6f 4a 10       	movdqu xmm1,XMMWORD PTR [rdx+0x10]
    2657:	f3 0f 6f 52 20       	movdqu xmm2,XMMWORD PTR [rdx+0x20]
    265c:	0f 11 45 20          	movups XMMWORD PTR [rbp+0x20],xmm0
    2660:	8b 4d 28             	mov    ecx,DWORD PTR [rbp+0x28]
    2663:	f3 0f 6f 5a 30       	movdqu xmm3,XMMWORD PTR [rdx+0x30]
    2668:	f3 0f 6f 62 40       	movdqu xmm4,XMMWORD PTR [rdx+0x40]
    266d:	4c 29 e2             	sub    rdx,r12
    2670:	48 89 75 70          	mov    QWORD PTR [rbp+0x70],rsi
    2674:	0f c9                	bswap  ecx
    2676:	48 8d 74 1a 58       	lea    rsi,[rdx+rbx*1+0x58]
    267b:	89 ca                	mov    edx,ecx
    267d:	0f 11 4d 30          	movups XMMWORD PTR [rbp+0x30],xmm1
    2681:	48 29 d6             	sub    rsi,rdx
    2684:	0f 11 55 40          	movups XMMWORD PTR [rbp+0x40],xmm2
    2688:	0f 11 5d 50          	movups XMMWORD PTR [rbp+0x50],xmm3
    268c:	0f 11 65 60          	movups XMMWORD PTR [rbp+0x60],xmm4
    2690:	48 89 75 08          	mov    QWORD PTR [rbp+0x8],rsi
    2694:	48 81 c4 60 10 00 00 	add    rsp,0x1060
    269b:	5b                   	pop    rbx
    269c:	5d                   	pop    rbp
    269d:	41 5c                	pop    r12
    269f:	c3                   	ret    
    26a0:	48 81 c4 60 10 00 00 	add    rsp,0x1060
    26a7:	b8 ff ff ff ff       	mov    eax,0xffffffff
    26ac:	5b                   	pop    rbx
    26ad:	5d                   	pop    rbp
    26ae:	41 5c                	pop    r12
    26b0:	c3                   	ret    
    26b1:	66 66 2e 0f 1f 84 00 	data16 nop WORD PTR cs:[rax+rax*1+0x0]
    26b8:	00 00 00 00 
    26bc:	0f 1f 40 00          	nop    DWORD PTR [rax+0x0]
    26c0:	8b 06                	mov    eax,DWORD PTR [rsi]
    26c2:	0f c8                	bswap  eax
    26c4:	89 c0                	mov    eax,eax
    26c6:	48 01 f0             	add    rax,rsi
    26c9:	48 39 47 10          	cmp    QWORD PTR [rdi+0x10],rax
    26cd:	77 01                	ja     26d0 <__cxa_finalize@plt+0x220>
    26cf:	c3                   	ret    
    26d0:	53                   	push   rbx
    26d1:	31 c0                	xor    eax,eax
    26d3:	48 89 fb             	mov    rbx,rdi
    26d6:	48 8d 3d 0b 3a 00 00 	lea    rdi,[rip+0x3a0b]        # 60e8 <__cxa_finalize@plt+0x3c38>
    26dd:	e8 5e 07 00 00       	call   2e40 <__cxa_finalize@plt+0x990>
    26e2:	48 8b 43 18          	mov    rax,QWORD PTR [rbx+0x18]
    26e6:	5b                   	pop    rbx
    26e7:	c3                   	ret    
    26e8:	0f 1f 84 00 00 00 00 	nop    DWORD PTR [rax+rax*1+0x0]
    26ef:	00 
    26f0:	41 57                	push   r15
    26f2:	41 56                	push   r14
    26f4:	41 55                	push   r13
    26f6:	41 54                	push   r12
    26f8:	49 89 f4             	mov    r12,rsi
    26fb:	55                   	push   rbp
    26fc:	48 89 fd             	mov    rbp,rdi
    26ff:	53                   	push   rbx
    2700:	48 83 ec 78          	sub    rsp,0x78
    2704:	48 8b 1f             	mov    rbx,QWORD PTR [rdi]
    2707:	48 85 db             	test   rbx,rbx
    270a:	0f 84 88 00 00 00    	je     2798 <__cxa_finalize@plt+0x2e8>
    2710:	41 8b 74 24 04       	mov    esi,DWORD PTR [r12+0x4]
    2715:	48 89 df             	mov    rdi,rbx
    2718:	31 d2                	xor    edx,edx
    271a:	0f ce                	bswap  esi
    271c:	89 f6                	mov    esi,esi
    271e:	48 03 75 08          	add    rsi,QWORD PTR [rbp+0x8]
    2722:	e8 39 fc ff ff       	call   2360 <fseek@plt>
    2727:	45 8b 6c 24 08       	mov    r13d,DWORD PTR [r12+0x8]
    272c:	41 0f cd             	bswap  r13d
    272f:	45 89 ed             	mov    r13d,r13d
    2732:	4c 89 ef             	mov    rdi,r13
    2735:	e8 f6 fb ff ff       	call   2330 <malloc@plt>
    273a:	48 89 c3             	mov    rbx,rax
    273d:	48 85 c0             	test   rax,rax
    2740:	0f 84 4a 01 00 00    	je     2890 <__cxa_finalize@plt+0x3e0>
    2746:	48 8b 4d 00          	mov    rcx,QWORD PTR [rbp+0x0]
    274a:	ba 01 00 00 00       	mov    edx,0x1
    274f:	4c 89 ee             	mov    rsi,r13
    2752:	48 89 c7             	mov    rdi,rax
    2755:	e8 b6 f9 ff ff       	call   2110 <fread@plt>
    275a:	48 85 c0             	test   rax,rax
    275d:	0f 84 0d 01 00 00    	je     2870 <__cxa_finalize@plt+0x3c0>
    2763:	41 80 7c 24 10 01    	cmp    BYTE PTR [r12+0x10],0x1
    2769:	74 65                	je     27d0 <__cxa_finalize@plt+0x320>
    276b:	48 8b 7d 00          	mov    rdi,QWORD PTR [rbp+0x0]
    276f:	48 85 ff             	test   rdi,rdi
    2772:	74 0d                	je     2781 <__cxa_finalize@plt+0x2d1>
    2774:	e8 e7 f9 ff ff       	call   2160 <fclose@plt>
    2779:	48 c7 45 00 00 00 00 	mov    QWORD PTR [rbp+0x0],0x0
    2780:	00 
    2781:	48 83 c4 78          	add    rsp,0x78
    2785:	48 89 d8             	mov    rax,rbx
    2788:	5b                   	pop    rbx
    2789:	5d                   	pop    rbp
    278a:	41 5c                	pop    r12
    278c:	41 5d                	pop    r13
    278e:	41 5e                	pop    r14
    2790:	41 5f                	pop    r15
    2792:	c3                   	ret    
    2793:	0f 1f 44 00 00       	nop    DWORD PTR [rax+rax*1+0x0]
    2798:	48 8d 7f 78          	lea    rdi,[rdi+0x78]
    279c:	48 8d 35 6a 38 00 00 	lea    rsi,[rip+0x386a]        # 600d <__cxa_finalize@plt+0x3b5d>
    27a3:	e8 38 fc ff ff       	call   23e0 <fopen@plt>
    27a8:	48 89 c3             	mov    rbx,rax
    27ab:	48 89 45 00          	mov    QWORD PTR [rbp+0x0],rax
    27af:	48 85 c0             	test   rax,rax
    27b2:	0f 85 58 ff ff ff    	jne    2710 <__cxa_finalize@plt+0x260>
    27b8:	48 8d 3d 51 38 00 00 	lea    rdi,[rip+0x3851]        # 6010 <__cxa_finalize@plt+0x3b60>
    27bf:	31 c0                	xor    eax,eax
    27c1:	e8 7a 06 00 00       	call   2e40 <__cxa_finalize@plt+0x990>
    27c6:	eb b9                	jmp    2781 <__cxa_finalize@plt+0x2d1>
    27c8:	0f 1f 84 00 00 00 00 	nop    DWORD PTR [rax+rax*1+0x0]
    27cf:	00 
    27d0:	45 8b 6c 24 0c       	mov    r13d,DWORD PTR [r12+0xc]
    27d5:	45 8b 74 24 08       	mov    r14d,DWORD PTR [r12+0x8]
    27da:	41 0f cd             	bswap  r13d
    27dd:	44 89 ef             	mov    edi,r13d
    27e0:	e8 4b fb ff ff       	call   2330 <malloc@plt>
    27e5:	49 89 c7             	mov    r15,rax
    27e8:	48 85 c0             	test   rax,rax
    27eb:	0f 84 0f 01 00 00    	je     2900 <__cxa_finalize@plt+0x450>
    27f1:	44 89 6c 24 20       	mov    DWORD PTR [rsp+0x20],r13d
    27f6:	49 89 e5             	mov    r13,rsp
    27f9:	ba 70 00 00 00       	mov    edx,0x70
    27fe:	48 8d 35 3f 38 00 00 	lea    rsi,[rip+0x383f]        # 6044 <__cxa_finalize@plt+0x3b94>
    2805:	4c 89 ef             	mov    rdi,r13
    2808:	41 0f ce             	bswap  r14d
    280b:	48 c7 44 24 40 00 00 	mov    QWORD PTR [rsp+0x40],0x0
    2812:	00 00 
    2814:	48 c7 44 24 48 00 00 	mov    QWORD PTR [rsp+0x48],0x0
    281b:	00 00 
    281d:	48 c7 44 24 50 00 00 	mov    QWORD PTR [rsp+0x50],0x0
    2824:	00 00 
    2826:	48 89 1c 24          	mov    QWORD PTR [rsp],rbx
    282a:	44 89 74 24 08       	mov    DWORD PTR [rsp+0x8],r14d
    282f:	48 89 44 24 18       	mov    QWORD PTR [rsp+0x18],rax
    2834:	e8 87 fb ff ff       	call   23c0 <inflateInit_@plt>
    2839:	85 c0                	test   eax,eax
    283b:	78 6b                	js     28a8 <__cxa_finalize@plt+0x3f8>
    283d:	be 04 00 00 00       	mov    esi,0x4
    2842:	4c 89 ef             	mov    rdi,r13
    2845:	e8 96 f8 ff ff       	call   20e0 <inflate@plt>
    284a:	85 c0                	test   eax,eax
    284c:	0f 88 8e 00 00 00    	js     28e0 <__cxa_finalize@plt+0x430>
    2852:	4c 89 ef             	mov    rdi,r13
    2855:	e8 66 fa ff ff       	call   22c0 <inflateEnd@plt>
    285a:	48 89 df             	mov    rdi,rbx
    285d:	4c 89 fb             	mov    rbx,r15
    2860:	e8 0b f8 ff ff       	call   2070 <free@plt>
    2865:	e9 01 ff ff ff       	jmp    276b <__cxa_finalize@plt+0x2bb>
    286a:	66 0f 1f 44 00 00    	nop    WORD PTR [rax+rax*1+0x0]
    2870:	48 8d 3d b3 37 00 00 	lea    rdi,[rip+0x37b3]        # 602a <__cxa_finalize@plt+0x3b7a>
    2877:	e8 c4 05 00 00       	call   2e40 <__cxa_finalize@plt+0x990>
    287c:	48 89 df             	mov    rdi,rbx
    287f:	31 db                	xor    ebx,ebx
    2881:	e8 ea f7 ff ff       	call   2070 <free@plt>
    2886:	e9 f6 fe ff ff       	jmp    2781 <__cxa_finalize@plt+0x2d1>
    288b:	0f 1f 44 00 00       	nop    DWORD PTR [rax+rax*1+0x0]
    2890:	48 8d 3d 71 38 00 00 	lea    rdi,[rip+0x3871]        # 6108 <__cxa_finalize@plt+0x3c58>
    2897:	31 c0                	xor    eax,eax
    2899:	e8 a2 05 00 00       	call   2e40 <__cxa_finalize@plt+0x990>
    289e:	e9 de fe ff ff       	jmp    2781 <__cxa_finalize@plt+0x2d1>
    28a3:	0f 1f 44 00 00       	nop    DWORD PTR [rax+rax*1+0x0]
    28a8:	48 8b 54 24 30       	mov    rdx,QWORD PTR [rsp+0x30]
    28ad:	89 c6                	mov    esi,eax
    28af:	48 8d 3d 9a 38 00 00 	lea    rdi,[rip+0x389a]        # 6150 <__cxa_finalize@plt+0x3ca0>
    28b6:	31 c0                	xor    eax,eax
    28b8:	e8 83 05 00 00       	call   2e40 <__cxa_finalize@plt+0x990>
    28bd:	48 89 df             	mov    rdi,rbx
    28c0:	e8 ab f7 ff ff       	call   2070 <free@plt>
    28c5:	49 8d 74 24 12       	lea    rsi,[r12+0x12]
    28ca:	48 8d 3d 95 37 00 00 	lea    rdi,[rip+0x3795]        # 6066 <__cxa_finalize@plt+0x3bb6>
    28d1:	31 c0                	xor    eax,eax
    28d3:	31 db                	xor    ebx,ebx
    28d5:	e8 66 05 00 00       	call   2e40 <__cxa_finalize@plt+0x990>
    28da:	e9 a2 fe ff ff       	jmp    2781 <__cxa_finalize@plt+0x2d1>
    28df:	90                   	nop
    28e0:	48 8b 54 24 30       	mov    rdx,QWORD PTR [rsp+0x30]
    28e5:	89 c6                	mov    esi,eax
    28e7:	48 8d 3d 5d 37 00 00 	lea    rdi,[rip+0x375d]        # 604b <__cxa_finalize@plt+0x3b9b>
    28ee:	31 c0                	xor    eax,eax
    28f0:	e8 4b 05 00 00       	call   2e40 <__cxa_finalize@plt+0x990>
    28f5:	48 89 df             	mov    rdi,rbx
    28f8:	e8 73 f7 ff ff       	call   2070 <free@plt>
    28fd:	eb c6                	jmp    28c5 <__cxa_finalize@plt+0x415>
    28ff:	90                   	nop
    2900:	48 8d 3d 21 38 00 00 	lea    rdi,[rip+0x3821]        # 6128 <__cxa_finalize@plt+0x3c78>
    2907:	31 c0                	xor    eax,eax
    2909:	e8 32 05 00 00       	call   2e40 <__cxa_finalize@plt+0x990>
    290e:	48 89 df             	mov    rdi,rbx
    2911:	e8 5a f7 ff ff       	call   2070 <free@plt>
    2916:	eb ad                	jmp    28c5 <__cxa_finalize@plt+0x415>
    2918:	0f 1f 84 00 00 00 00 	nop    DWORD PTR [rax+rax*1+0x0]
    291f:	00 
    2920:	41 56                	push   r14
    2922:	49 89 f6             	mov    r14,rsi
    2925:	41 55                	push   r13
    2927:	41 54                	push   r12
    2929:	55                   	push   rbp
    292a:	53                   	push   rbx
    292b:	48 89 fb             	mov    rbx,rdi
    292e:	e8 bd fd ff ff       	call   26f0 <__cxa_finalize@plt+0x240>
    2933:	48 89 df             	mov    rdi,rbx
    2936:	48 89 c5             	mov    rbp,rax
    2939:	e8 b2 2b 00 00       	call   54f0 <__cxa_finalize@plt+0x3040>
    293e:	83 f8 ff             	cmp    eax,0xffffffff
    2941:	74 67                	je     29aa <__cxa_finalize@plt+0x4fa>
    2943:	4d 8d 66 12          	lea    r12,[r14+0x12]
    2947:	48 8d bb 78 20 00 00 	lea    rdi,[rbx+0x2078]
    294e:	4c 89 e6             	mov    rsi,r12
    2951:	e8 5a 2e 00 00       	call   57b0 <__cxa_finalize@plt+0x3300>
    2956:	41 8b 5e 0c          	mov    ebx,DWORD PTR [r14+0xc]
    295a:	49 89 c5             	mov    r13,rax
    295d:	0f cb                	bswap  ebx
    295f:	89 db                	mov    ebx,ebx
    2961:	48 85 c0             	test   rax,rax
    2964:	74 71                	je     29d7 <__cxa_finalize@plt+0x527>
    2966:	48 89 c1             	mov    rcx,rax
    2969:	ba 01 00 00 00       	mov    edx,0x1
    296e:	48 89 de             	mov    rsi,rbx
    2971:	48 89 ef             	mov    rdi,rbp
    2974:	e8 c7 fa ff ff       	call   2440 <fwrite@plt>
    2979:	48 83 f8 01          	cmp    rax,0x1
    297d:	74 05                	je     2984 <__cxa_finalize@plt+0x4d4>
    297f:	48 85 db             	test   rbx,rbx
    2982:	75 34                	jne    29b8 <__cxa_finalize@plt+0x508>
    2984:	4c 89 ef             	mov    rdi,r13
    2987:	e8 64 f9 ff ff       	call   22f0 <fileno@plt>
    298c:	be c0 01 00 00       	mov    esi,0x1c0
    2991:	89 c7                	mov    edi,eax
    2993:	e8 18 fa ff ff       	call   23b0 <fchmod@plt>
    2998:	4c 89 ef             	mov    rdi,r13
    299b:	e8 c0 f7 ff ff       	call   2160 <fclose@plt>
    29a0:	48 89 ef             	mov    rdi,rbp
    29a3:	e8 c8 f6 ff ff       	call   2070 <free@plt>
    29a8:	31 c0                	xor    eax,eax
    29aa:	5b                   	pop    rbx
    29ab:	5d                   	pop    rbp
    29ac:	41 5c                	pop    r12
    29ae:	41 5d                	pop    r13
    29b0:	41 5e                	pop    r14
    29b2:	c3                   	ret    
    29b3:	0f 1f 44 00 00       	nop    DWORD PTR [rax+rax*1+0x0]
    29b8:	31 c0                	xor    eax,eax
    29ba:	4c 89 e2             	mov    rdx,r12
    29bd:	48 8d 35 ac 37 00 00 	lea    rsi,[rip+0x37ac]        # 6170 <__cxa_finalize@plt+0x3cc0>
    29c4:	48 8d 3d d5 36 00 00 	lea    rdi,[rip+0x36d5]        # 60a0 <__cxa_finalize@plt+0x3bf0>
    29cb:	e8 40 05 00 00       	call   2f10 <__cxa_finalize@plt+0xa60>
    29d0:	b8 ff ff ff ff       	mov    eax,0xffffffff
    29d5:	eb d3                	jmp    29aa <__cxa_finalize@plt+0x4fa>
    29d7:	31 c0                	xor    eax,eax
    29d9:	4c 89 e2             	mov    rdx,r12
    29dc:	48 8d 35 9b 36 00 00 	lea    rsi,[rip+0x369b]        # 607e <__cxa_finalize@plt+0x3bce>
    29e3:	48 8d 3d b0 36 00 00 	lea    rdi,[rip+0x36b0]        # 609a <__cxa_finalize@plt+0x3bea>
    29ea:	e8 21 05 00 00       	call   2f10 <__cxa_finalize@plt+0xa60>
    29ef:	b8 ff ff ff ff       	mov    eax,0xffffffff
    29f4:	eb b4                	jmp    29aa <__cxa_finalize@plt+0x4fa>
    29f6:	66 2e 0f 1f 84 00 00 	nop    WORD PTR cs:[rax+rax*1+0x0]
    29fd:	00 00 00 
    2a00:	55                   	push   rbp
    2a01:	53                   	push   rbx
    2a02:	48 89 fb             	mov    rbx,rdi
    2a05:	48 83 ec 08          	sub    rsp,0x8
    2a09:	48 8b 3f             	mov    rdi,QWORD PTR [rdi]
    2a0c:	48 85 ff             	test   rdi,rdi
    2a0f:	0f 84 c3 00 00 00    	je     2ad8 <__cxa_finalize@plt+0x628>
    2a15:	31 f6                	xor    esi,esi
    2a17:	ba 02 00 00 00       	mov    edx,0x2
    2a1c:	e8 3f f9 ff ff       	call   2360 <fseek@plt>
    2a21:	48 8b 3b             	mov    rdi,QWORD PTR [rbx]
    2a24:	e8 47 f8 ff ff       	call   2270 <ftell@plt>
    2a29:	48 89 df             	mov    rdi,rbx
    2a2c:	89 c6                	mov    esi,eax
    2a2e:	e8 8d fb ff ff       	call   25c0 <__cxa_finalize@plt+0x110>
    2a33:	83 f8 ff             	cmp    eax,0xffffffff
    2a36:	0f 84 c4 00 00 00    	je     2b00 <__cxa_finalize@plt+0x650>
    2a3c:	8b 73 2c             	mov    esi,DWORD PTR [rbx+0x2c]
    2a3f:	8b 43 34             	mov    eax,DWORD PTR [rbx+0x34]
    2a42:	31 d2                	xor    edx,edx
    2a44:	c7 83 7c 40 00 00 00 	mov    DWORD PTR [rbx+0x407c],0x0
    2a4b:	00 00 00 
    2a4e:	48 8b 3b             	mov    rdi,QWORD PTR [rbx]
    2a51:	0f ce                	bswap  esi
    2a53:	89 f6                	mov    esi,esi
    2a55:	48 03 73 08          	add    rsi,QWORD PTR [rbx+0x8]
    2a59:	0f c8                	bswap  eax
    2a5b:	89 05 4b 78 00 00    	mov    DWORD PTR [rip+0x784b],eax        # a2ac <stderr@@GLIBC_2.2.5+0xc>
    2a61:	e8 fa f8 ff ff       	call   2360 <fseek@plt>
    2a66:	8b 6b 30             	mov    ebp,DWORD PTR [rbx+0x30]
    2a69:	0f cd                	bswap  ebp
    2a6b:	89 ed                	mov    ebp,ebp
    2a6d:	48 89 ef             	mov    rdi,rbp
    2a70:	e8 bb f8 ff ff       	call   2330 <malloc@plt>
    2a75:	48 89 43 10          	mov    QWORD PTR [rbx+0x10],rax
    2a79:	48 85 c0             	test   rax,rax
    2a7c:	0f 84 bd 00 00 00    	je     2b3f <__cxa_finalize@plt+0x68f>
    2a82:	48 8b 0b             	mov    rcx,QWORD PTR [rbx]
    2a85:	ba 01 00 00 00       	mov    edx,0x1
    2a8a:	48 89 ee             	mov    rsi,rbp
    2a8d:	48 89 c7             	mov    rdi,rax
    2a90:	e8 7b f6 ff ff       	call   2110 <fread@plt>
    2a95:	48 85 c0             	test   rax,rax
    2a98:	74 76                	je     2b10 <__cxa_finalize@plt+0x660>
    2a9a:	8b 43 30             	mov    eax,DWORD PTR [rbx+0x30]
    2a9d:	48 8b 3b             	mov    rdi,QWORD PTR [rbx]
    2aa0:	0f c8                	bswap  eax
    2aa2:	89 c0                	mov    eax,eax
    2aa4:	48 03 43 10          	add    rax,QWORD PTR [rbx+0x10]
    2aa8:	48 89 43 18          	mov    QWORD PTR [rbx+0x18],rax
    2aac:	e8 4f f6 ff ff       	call   2100 <ferror@plt>
    2ab1:	89 c5                	mov    ebp,eax
    2ab3:	85 c0                	test   eax,eax
    2ab5:	75 73                	jne    2b2a <__cxa_finalize@plt+0x67a>
    2ab7:	48 8b 3b             	mov    rdi,QWORD PTR [rbx]
    2aba:	48 85 ff             	test   rdi,rdi
    2abd:	74 0c                	je     2acb <__cxa_finalize@plt+0x61b>
    2abf:	e8 9c f6 ff ff       	call   2160 <fclose@plt>
    2ac4:	48 c7 03 00 00 00 00 	mov    QWORD PTR [rbx],0x0
    2acb:	48 83 c4 08          	add    rsp,0x8
    2acf:	89 e8                	mov    eax,ebp
    2ad1:	5b                   	pop    rbx
    2ad2:	5d                   	pop    rbp
    2ad3:	c3                   	ret    
    2ad4:	0f 1f 40 00          	nop    DWORD PTR [rax+0x0]
    2ad8:	48 8d 7b 78          	lea    rdi,[rbx+0x78]
    2adc:	48 8d 35 2a 35 00 00 	lea    rsi,[rip+0x352a]        # 600d <__cxa_finalize@plt+0x3b5d>
    2ae3:	e8 f8 f8 ff ff       	call   23e0 <fopen@plt>
    2ae8:	48 89 c7             	mov    rdi,rax
    2aeb:	48 89 03             	mov    QWORD PTR [rbx],rax
    2aee:	48 85 c0             	test   rax,rax
    2af1:	0f 85 1e ff ff ff    	jne    2a15 <__cxa_finalize@plt+0x565>
    2af7:	66 0f 1f 84 00 00 00 	nop    WORD PTR [rax+rax*1+0x0]
    2afe:	00 00 
    2b00:	bd ff ff ff ff       	mov    ebp,0xffffffff
    2b05:	eb c4                	jmp    2acb <__cxa_finalize@plt+0x61b>
    2b07:	66 0f 1f 84 00 00 00 	nop    WORD PTR [rax+rax*1+0x0]
    2b0e:	00 00 
    2b10:	48 8d 35 97 35 00 00 	lea    rsi,[rip+0x3597]        # 60ae <__cxa_finalize@plt+0x3bfe>
    2b17:	48 8d 3d aa 35 00 00 	lea    rdi,[rip+0x35aa]        # 60c8 <__cxa_finalize@plt+0x3c18>
    2b1e:	bd ff ff ff ff       	mov    ebp,0xffffffff
    2b23:	e8 e8 03 00 00       	call   2f10 <__cxa_finalize@plt+0xa60>
    2b28:	eb a1                	jmp    2acb <__cxa_finalize@plt+0x61b>
    2b2a:	48 8d 3d 9d 35 00 00 	lea    rdi,[rip+0x359d]        # 60ce <__cxa_finalize@plt+0x3c1e>
    2b31:	31 c0                	xor    eax,eax
    2b33:	bd ff ff ff ff       	mov    ebp,0xffffffff
    2b38:	e8 03 03 00 00       	call   2e40 <__cxa_finalize@plt+0x990>
    2b3d:	eb 8c                	jmp    2acb <__cxa_finalize@plt+0x61b>
    2b3f:	48 8d 35 52 36 00 00 	lea    rsi,[rip+0x3652]        # 6198 <__cxa_finalize@plt+0x3ce8>
    2b46:	48 8d 3d 5a 35 00 00 	lea    rdi,[rip+0x355a]        # 60a7 <__cxa_finalize@plt+0x3bf7>
    2b4d:	e8 be 03 00 00       	call   2f10 <__cxa_finalize@plt+0xa60>
    2b52:	eb ac                	jmp    2b00 <__cxa_finalize@plt+0x650>
    2b54:	66 66 2e 0f 1f 84 00 	data16 nop WORD PTR cs:[rax+rax*1+0x0]
    2b5b:	00 00 00 00 
    2b5f:	90                   	nop
    2b60:	41 54                	push   r12
    2b62:	55                   	push   rbp
    2b63:	48 89 f5             	mov    rbp,rsi
    2b66:	53                   	push   rbx
    2b67:	48 89 fb             	mov    rbx,rdi
    2b6a:	48 89 f7             	mov    rdi,rsi
    2b6d:	e8 2e f6 ff ff       	call   21a0 <strlen@plt>
    2b72:	48 3d ff 0f 00 00    	cmp    rax,0xfff
    2b78:	76 0e                	jbe    2b88 <__cxa_finalize@plt+0x6d8>
    2b7a:	31 c0                	xor    eax,eax
    2b7c:	5b                   	pop    rbx
    2b7d:	5d                   	pop    rbp
    2b7e:	41 5c                	pop    r12
    2b80:	c3                   	ret    
    2b81:	0f 1f 80 00 00 00 00 	nop    DWORD PTR [rax+0x0]
    2b88:	b9 00 10 00 00       	mov    ecx,0x1000
    2b8d:	48 8d 50 01          	lea    rdx,[rax+0x1]
    2b91:	48 8d 7b 78          	lea    rdi,[rbx+0x78]
    2b95:	48 89 ee             	mov    rsi,rbp
    2b98:	e8 c3 f6 ff ff       	call   2260 <__memcpy_chk@plt>
    2b9d:	4c 8d a3 78 10 00 00 	lea    r12,[rbx+0x1078]
    2ba4:	48 89 ee             	mov    rsi,rbp
    2ba7:	4c 89 e7             	mov    rdi,r12
    2baa:	e8 a1 10 00 00       	call   3c50 <__cxa_finalize@plt+0x17a0>
    2baf:	ba 00 10 00 00       	mov    edx,0x1000
    2bb4:	48 8d bb 78 30 00 00 	lea    rdi,[rbx+0x3078]
    2bbb:	4c 89 e6             	mov    rsi,r12
    2bbe:	c7 83 78 40 00 00 00 	mov    DWORD PTR [rbx+0x4078],0x0
    2bc5:	00 00 00 
    2bc8:	e8 b3 f7 ff ff       	call   2380 <__strcpy_chk@plt>
    2bcd:	48 89 df             	mov    rdi,rbx
    2bd0:	e8 2b fe ff ff       	call   2a00 <__cxa_finalize@plt+0x550>
    2bd5:	89 c2                	mov    edx,eax
    2bd7:	b8 01 00 00 00       	mov    eax,0x1
    2bdc:	85 d2                	test   edx,edx
    2bde:	74 9c                	je     2b7c <__cxa_finalize@plt+0x6cc>
    2be0:	48 8b 3b             	mov    rdi,QWORD PTR [rbx]
    2be3:	48 85 ff             	test   rdi,rdi
    2be6:	74 92                	je     2b7a <__cxa_finalize@plt+0x6ca>
    2be8:	e8 73 f5 ff ff       	call   2160 <fclose@plt>
    2bed:	48 c7 03 00 00 00 00 	mov    QWORD PTR [rbx],0x0
    2bf4:	eb 84                	jmp    2b7a <__cxa_finalize@plt+0x6ca>
    2bf6:	66 2e 0f 1f 84 00 00 	nop    WORD PTR cs:[rax+rax*1+0x0]
    2bfd:	00 00 00 
    2c00:	48 8b 47 10          	mov    rax,QWORD PTR [rdi+0x10]
    2c04:	c3                   	ret    
    2c05:	66 66 2e 0f 1f 84 00 	data16 nop WORD PTR cs:[rax+rax*1+0x0]
    2c0c:	00 00 00 00 
    2c10:	8b 06                	mov    eax,DWORD PTR [rsi]
    2c12:	ba 00 00 00 00       	mov    edx,0x0
    2c17:	0f c8                	bswap  eax
    2c19:	89 c0                	mov    eax,eax
    2c1b:	48 01 f0             	add    rax,rsi
    2c1e:	48 39 47 18          	cmp    QWORD PTR [rdi+0x18],rax
    2c22:	48 0f 46 c2          	cmovbe rax,rdx
    2c26:	c3                   	ret    
    2c27:	66 0f 1f 84 00 00 00 	nop    WORD PTR [rax+rax*1+0x0]
    2c2e:	00 00 
    2c30:	8b 47 34             	mov    eax,DWORD PTR [rdi+0x34]
    2c33:	0f c8                	bswap  eax
    2c35:	c3                   	ret    
    2c36:	66 2e 0f 1f 84 00 00 	nop    WORD PTR cs:[rax+rax*1+0x0]
    2c3d:	00 00 00 
    2c40:	53                   	push   rbx
    2c41:	be 90 40 00 00       	mov    esi,0x4090
    2c46:	bf 01 00 00 00       	mov    edi,0x1
    2c4b:	e8 e0 f5 ff ff       	call   2230 <calloc@plt>
    2c50:	48 89 c3             	mov    rbx,rax
    2c53:	48 85 c0             	test   rax,rax
    2c56:	74 08                	je     2c60 <__cxa_finalize@plt+0x7b0>
    2c58:	48 89 d8             	mov    rax,rbx
    2c5b:	5b                   	pop    rbx
    2c5c:	c3                   	ret    
    2c5d:	0f 1f 00             	nop    DWORD PTR [rax]
    2c60:	31 c0                	xor    eax,eax
    2c62:	48 8d 35 57 35 00 00 	lea    rsi,[rip+0x3557]        # 61c0 <__cxa_finalize@plt+0x3d10>
    2c69:	48 8d 3d 6e 34 00 00 	lea    rdi,[rip+0x346e]        # 60de <__cxa_finalize@plt+0x3c2e>
    2c70:	e8 9b 02 00 00       	call   2f10 <__cxa_finalize@plt+0xa60>
    2c75:	48 89 d8             	mov    rax,rbx
    2c78:	5b                   	pop    rbx
    2c79:	c3                   	ret    
    2c7a:	66 0f 1f 44 00 00    	nop    WORD PTR [rax+rax*1+0x0]
    2c80:	48 85 ff             	test   rdi,rdi
    2c83:	74 2b                	je     2cb0 <__cxa_finalize@plt+0x800>
    2c85:	53                   	push   rbx
    2c86:	48 89 fb             	mov    rbx,rdi
    2c89:	48 8b 7f 10          	mov    rdi,QWORD PTR [rdi+0x10]
    2c8d:	48 85 ff             	test   rdi,rdi
    2c90:	74 05                	je     2c97 <__cxa_finalize@plt+0x7e7>
    2c92:	e8 d9 f3 ff ff       	call   2070 <free@plt>
    2c97:	48 8b 3b             	mov    rdi,QWORD PTR [rbx]
    2c9a:	48 85 ff             	test   rdi,rdi
    2c9d:	74 05                	je     2ca4 <__cxa_finalize@plt+0x7f4>
    2c9f:	e8 bc f4 ff ff       	call   2160 <fclose@plt>
    2ca4:	48 89 df             	mov    rdi,rbx
    2ca7:	5b                   	pop    rbx
    2ca8:	e9 c3 f3 ff ff       	jmp    2070 <free@plt>
    2cad:	0f 1f 00             	nop    DWORD PTR [rax]
    2cb0:	c3                   	ret    
    2cb1:	66 66 2e 0f 1f 84 00 	data16 nop WORD PTR cs:[rax+rax*1+0x0]
    2cb8:	00 00 00 00 
    2cbc:	0f 1f 40 00          	nop    DWORD PTR [rax+0x0]
    2cc0:	41 57                	push   r15
    2cc2:	41 56                	push   r14
    2cc4:	49 89 fe             	mov    r14,rdi
    2cc7:	41 55                	push   r13
    2cc9:	41 54                	push   r12
    2ccb:	49 89 f4             	mov    r12,rsi
    2cce:	55                   	push   rbp
    2ccf:	53                   	push   rbx
    2cd0:	48 83 ec 08          	sub    rsp,0x8
    2cd4:	48 8b 5f 10          	mov    rbx,QWORD PTR [rdi+0x10]
    2cd8:	48 89 f7             	mov    rdi,rsi
    2cdb:	e8 c0 f4 ff ff       	call   21a0 <strlen@plt>
    2ce0:	4d 8b 6e 18          	mov    r13,QWORD PTR [r14+0x18]
    2ce4:	48 89 c5             	mov    rbp,rax
    2ce7:	66 0f 1f 84 00 00 00 	nop    WORD PTR [rax+rax*1+0x0]
    2cee:	00 00 
    2cf0:	49 39 dd             	cmp    r13,rbx
    2cf3:	76 2f                	jbe    2d24 <__cxa_finalize@plt+0x874>
    2cf5:	80 7b 11 6f          	cmp    BYTE PTR [rbx+0x11],0x6f
    2cf9:	74 3d                	je     2d38 <__cxa_finalize@plt+0x888>
    2cfb:	8b 03                	mov    eax,DWORD PTR [rbx]
    2cfd:	0f c8                	bswap  eax
    2cff:	89 c0                	mov    eax,eax
    2d01:	48 01 c3             	add    rbx,rax
    2d04:	49 3b 5e 10          	cmp    rbx,QWORD PTR [r14+0x10]
    2d08:	73 e6                	jae    2cf0 <__cxa_finalize@plt+0x840>
    2d0a:	48 8d 3d d7 33 00 00 	lea    rdi,[rip+0x33d7]        # 60e8 <__cxa_finalize@plt+0x3c38>
    2d11:	31 c0                	xor    eax,eax
    2d13:	e8 28 01 00 00       	call   2e40 <__cxa_finalize@plt+0x990>
    2d18:	49 8b 5e 18          	mov    rbx,QWORD PTR [r14+0x18]
    2d1c:	49 89 dd             	mov    r13,rbx
    2d1f:	49 39 dd             	cmp    r13,rbx
    2d22:	77 d1                	ja     2cf5 <__cxa_finalize@plt+0x845>
    2d24:	48 83 c4 08          	add    rsp,0x8
    2d28:	31 c0                	xor    eax,eax
    2d2a:	5b                   	pop    rbx
    2d2b:	5d                   	pop    rbp
    2d2c:	41 5c                	pop    r12
    2d2e:	41 5d                	pop    r13
    2d30:	41 5e                	pop    r14
    2d32:	41 5f                	pop    r15
    2d34:	c3                   	ret    
    2d35:	0f 1f 00             	nop    DWORD PTR [rax]
    2d38:	4c 8d 7b 12          	lea    r15,[rbx+0x12]
    2d3c:	48 89 ea             	mov    rdx,rbp
    2d3f:	4c 89 e6             	mov    rsi,r12
    2d42:	4c 89 ff             	mov    rdi,r15
    2d45:	e8 76 f3 ff ff       	call   20c0 <strncmp@plt>
    2d4a:	85 c0                	test   eax,eax
    2d4c:	75 ad                	jne    2cfb <__cxa_finalize@plt+0x84b>
    2d4e:	80 7c 2b 12 01       	cmp    BYTE PTR [rbx+rbp*1+0x12],0x1
    2d53:	49 8d 04 2f          	lea    rax,[r15+rbp*1]
    2d57:	48 83 d8 ff          	sbb    rax,0xffffffffffffffff
    2d5b:	48 83 c4 08          	add    rsp,0x8
    2d5f:	5b                   	pop    rbx
    2d60:	5d                   	pop    rbp
    2d61:	41 5c                	pop    r12
    2d63:	41 5d                	pop    r13
    2d65:	41 5e                	pop    r14
    2d67:	41 5f                	pop    r15
    2d69:	c3                   	ret    
    2d6a:	66 0f 1f 44 00 00    	nop    WORD PTR [rax+rax*1+0x0]
    2d70:	48 89 fa             	mov    rdx,rdi
    2d73:	48 8b 3d 26 75 00 00 	mov    rdi,QWORD PTR [rip+0x7526]        # a2a0 <stderr@@GLIBC_2.2.5>
    2d7a:	48 89 f1             	mov    rcx,rsi
    2d7d:	be 01 00 00 00       	mov    esi,0x1
    2d82:	e9 f9 f2 ff ff       	jmp    2080 <__vfprintf_chk@plt>
    2d87:	66 0f 1f 84 00 00 00 	nop    WORD PTR [rax+rax*1+0x0]
    2d8e:	00 00 
    2d90:	48 81 ec d8 00 00 00 	sub    rsp,0xd8
    2d97:	48 89 74 24 28       	mov    QWORD PTR [rsp+0x28],rsi
    2d9c:	48 89 54 24 30       	mov    QWORD PTR [rsp+0x30],rdx
    2da1:	48 89 4c 24 38       	mov    QWORD PTR [rsp+0x38],rcx
    2da6:	4c 89 44 24 40       	mov    QWORD PTR [rsp+0x40],r8
    2dab:	4c 89 4c 24 48       	mov    QWORD PTR [rsp+0x48],r9
    2db0:	84 c0                	test   al,al
    2db2:	74 37                	je     2deb <__cxa_finalize@plt+0x93b>
    2db4:	0f 29 44 24 50       	movaps XMMWORD PTR [rsp+0x50],xmm0
    2db9:	0f 29 4c 24 60       	movaps XMMWORD PTR [rsp+0x60],xmm1
    2dbe:	0f 29 54 24 70       	movaps XMMWORD PTR [rsp+0x70],xmm2
    2dc3:	0f 29 9c 24 80 00 00 	movaps XMMWORD PTR [rsp+0x80],xmm3
    2dca:	00 
    2dcb:	0f 29 a4 24 90 00 00 	movaps XMMWORD PTR [rsp+0x90],xmm4
    2dd2:	00 
    2dd3:	0f 29 ac 24 a0 00 00 	movaps XMMWORD PTR [rsp+0xa0],xmm5
    2dda:	00 
    2ddb:	0f 29 b4 24 b0 00 00 	movaps XMMWORD PTR [rsp+0xb0],xmm6
    2de2:	00 
    2de3:	0f 29 bc 24 c0 00 00 	movaps XMMWORD PTR [rsp+0xc0],xmm7
    2dea:	00 
    2deb:	48 8d 84 24 e0 00 00 	lea    rax,[rsp+0xe0]
    2df2:	00 
    2df3:	48 89 fa             	mov    rdx,rdi
    2df6:	48 8b 3d a3 74 00 00 	mov    rdi,QWORD PTR [rip+0x74a3]        # a2a0 <stderr@@GLIBC_2.2.5>
    2dfd:	48 8d 4c 24 08       	lea    rcx,[rsp+0x8]
    2e02:	48 89 44 24 10       	mov    QWORD PTR [rsp+0x10],rax
    2e07:	be 01 00 00 00       	mov    esi,0x1
    2e0c:	48 8d 44 24 20       	lea    rax,[rsp+0x20]
    2e11:	c7 44 24 08 08 00 00 	mov    DWORD PTR [rsp+0x8],0x8
    2e18:	00 
    2e19:	c7 44 24 0c 30 00 00 	mov    DWORD PTR [rsp+0xc],0x30
    2e20:	00 
    2e21:	48 89 44 24 18       	mov    QWORD PTR [rsp+0x18],rax
    2e26:	e8 55 f2 ff ff       	call   2080 <__vfprintf_chk@plt>
    2e2b:	48 81 c4 d8 00 00 00 	add    rsp,0xd8
    2e32:	c3                   	ret    
    2e33:	66 66 2e 0f 1f 84 00 	data16 nop WORD PTR cs:[rax+rax*1+0x0]
    2e3a:	00 00 00 00 
    2e3e:	66 90                	xchg   ax,ax
    2e40:	53                   	push   rbx
    2e41:	48 89 fb             	mov    rbx,rdi
    2e44:	48 81 ec d0 00 00 00 	sub    rsp,0xd0
    2e4b:	48 89 74 24 28       	mov    QWORD PTR [rsp+0x28],rsi
    2e50:	48 89 54 24 30       	mov    QWORD PTR [rsp+0x30],rdx
    2e55:	48 89 4c 24 38       	mov    QWORD PTR [rsp+0x38],rcx
    2e5a:	4c 89 44 24 40       	mov    QWORD PTR [rsp+0x40],r8
    2e5f:	4c 89 4c 24 48       	mov    QWORD PTR [rsp+0x48],r9
    2e64:	84 c0                	test   al,al
    2e66:	74 37                	je     2e9f <__cxa_finalize@plt+0x9ef>
    2e68:	0f 29 44 24 50       	movaps XMMWORD PTR [rsp+0x50],xmm0
    2e6d:	0f 29 4c 24 60       	movaps XMMWORD PTR [rsp+0x60],xmm1
    2e72:	0f 29 54 24 70       	movaps XMMWORD PTR [rsp+0x70],xmm2
    2e77:	0f 29 9c 24 80 00 00 	movaps XMMWORD PTR [rsp+0x80],xmm3
    2e7e:	00 
    2e7f:	0f 29 a4 24 90 00 00 	movaps XMMWORD PTR [rsp+0x90],xmm4
    2e86:	00 
    2e87:	0f 29 ac 24 a0 00 00 	movaps XMMWORD PTR [rsp+0xa0],xmm5
    2e8e:	00 
    2e8f:	0f 29 b4 24 b0 00 00 	movaps XMMWORD PTR [rsp+0xb0],xmm6
    2e96:	00 
    2e97:	0f 29 bc 24 c0 00 00 	movaps XMMWORD PTR [rsp+0xc0],xmm7
    2e9e:	00 
    2e9f:	e8 ac f2 ff ff       	call   2150 <getpid@plt>
    2ea4:	48 8b 3d f5 73 00 00 	mov    rdi,QWORD PTR [rip+0x73f5]        # a2a0 <stderr@@GLIBC_2.2.5>
    2eab:	be 01 00 00 00       	mov    esi,0x1
    2eb0:	48 8d 15 34 33 00 00 	lea    rdx,[rip+0x3334]        # 61eb <__cxa_finalize@plt+0x3d3b>
    2eb7:	89 c1                	mov    ecx,eax
    2eb9:	31 c0                	xor    eax,eax
    2ebb:	e8 90 f5 ff ff       	call   2450 <__fprintf_chk@plt>
    2ec0:	48 8d 84 24 e0 00 00 	lea    rax,[rsp+0xe0]
    2ec7:	00 
    2ec8:	48 8d 4c 24 08       	lea    rcx,[rsp+0x8]
    2ecd:	48 89 da             	mov    rdx,rbx
    2ed0:	48 8b 3d c9 73 00 00 	mov    rdi,QWORD PTR [rip+0x73c9]        # a2a0 <stderr@@GLIBC_2.2.5>
    2ed7:	48 89 44 24 10       	mov    QWORD PTR [rsp+0x10],rax
    2edc:	be 01 00 00 00       	mov    esi,0x1
    2ee1:	48 8d 44 24 20       	lea    rax,[rsp+0x20]
    2ee6:	c7 44 24 08 08 00 00 	mov    DWORD PTR [rsp+0x8],0x8
    2eed:	00 
    2eee:	c7 44 24 0c 30 00 00 	mov    DWORD PTR [rsp+0xc],0x30
    2ef5:	00 
    2ef6:	48 89 44 24 18       	mov    QWORD PTR [rsp+0x18],rax
    2efb:	e8 80 f1 ff ff       	call   2080 <__vfprintf_chk@plt>
    2f00:	48 81 c4 d0 00 00 00 	add    rsp,0xd0
    2f07:	5b                   	pop    rbx
    2f08:	c3                   	ret    
    2f09:	0f 1f 80 00 00 00 00 	nop    DWORD PTR [rax+0x0]
    2f10:	53                   	push   rbx
    2f11:	48 89 fb             	mov    rbx,rdi
    2f14:	48 81 ec d0 00 00 00 	sub    rsp,0xd0
    2f1b:	48 89 54 24 30       	mov    QWORD PTR [rsp+0x30],rdx
    2f20:	48 89 4c 24 38       	mov    QWORD PTR [rsp+0x38],rcx
    2f25:	4c 89 44 24 40       	mov    QWORD PTR [rsp+0x40],r8
    2f2a:	4c 89 4c 24 48       	mov    QWORD PTR [rsp+0x48],r9
    2f2f:	84 c0                	test   al,al
    2f31:	74 37                	je     2f6a <__cxa_finalize@plt+0xaba>
    2f33:	0f 29 44 24 50       	movaps XMMWORD PTR [rsp+0x50],xmm0
    2f38:	0f 29 4c 24 60       	movaps XMMWORD PTR [rsp+0x60],xmm1
    2f3d:	0f 29 54 24 70       	movaps XMMWORD PTR [rsp+0x70],xmm2
    2f42:	0f 29 9c 24 80 00 00 	movaps XMMWORD PTR [rsp+0x80],xmm3
    2f49:	00 
    2f4a:	0f 29 a4 24 90 00 00 	movaps XMMWORD PTR [rsp+0x90],xmm4
    2f51:	00 
    2f52:	0f 29 ac 24 a0 00 00 	movaps XMMWORD PTR [rsp+0xa0],xmm5
    2f59:	00 
    2f5a:	0f 29 b4 24 b0 00 00 	movaps XMMWORD PTR [rsp+0xb0],xmm6
    2f61:	00 
    2f62:	0f 29 bc 24 c0 00 00 	movaps XMMWORD PTR [rsp+0xc0],xmm7
    2f69:	00 
    2f6a:	48 8d 84 24 e0 00 00 	lea    rax,[rsp+0xe0]
    2f71:	00 
    2f72:	48 8b 3d 27 73 00 00 	mov    rdi,QWORD PTR [rip+0x7327]        # a2a0 <stderr@@GLIBC_2.2.5>
    2f79:	48 8d 4c 24 08       	lea    rcx,[rsp+0x8]
    2f7e:	48 89 f2             	mov    rdx,rsi
    2f81:	48 89 44 24 10       	mov    QWORD PTR [rsp+0x10],rax
    2f86:	be 01 00 00 00       	mov    esi,0x1
    2f8b:	48 8d 44 24 20       	lea    rax,[rsp+0x20]
    2f90:	c7 44 24 08 10 00 00 	mov    DWORD PTR [rsp+0x8],0x10
    2f97:	00 
    2f98:	c7 44 24 0c 30 00 00 	mov    DWORD PTR [rsp+0xc],0x30
    2f9f:	00 
    2fa0:	48 89 44 24 18       	mov    QWORD PTR [rsp+0x18],rax
    2fa5:	e8 d6 f0 ff ff       	call   2080 <__vfprintf_chk@plt>
    2faa:	48 89 df             	mov    rdi,rbx
    2fad:	e8 3e f4 ff ff       	call   23f0 <perror@plt>
    2fb2:	48 81 c4 d0 00 00 00 	add    rsp,0xd0
    2fb9:	5b                   	pop    rbx
    2fba:	c3                   	ret    
    2fbb:	0f 1f 44 00 00       	nop    DWORD PTR [rax+rax*1+0x0]
    2fc0:	53                   	push   rbx
    2fc1:	48 89 fb             	mov    rbx,rdi
    2fc4:	48 81 ec 60 01 00 00 	sub    rsp,0x160
    2fcb:	48 89 94 24 c0 00 00 	mov    QWORD PTR [rsp+0xc0],rdx
    2fd2:	00 
    2fd3:	48 89 8c 24 c8 00 00 	mov    QWORD PTR [rsp+0xc8],rcx
    2fda:	00 
    2fdb:	4c 89 84 24 d0 00 00 	mov    QWORD PTR [rsp+0xd0],r8
    2fe2:	00 
    2fe3:	4c 89 8c 24 d8 00 00 	mov    QWORD PTR [rsp+0xd8],r9
    2fea:	00 
    2feb:	84 c0                	test   al,al
    2fed:	74 40                	je     302f <__cxa_finalize@plt+0xb7f>
    2fef:	0f 29 84 24 e0 00 00 	movaps XMMWORD PTR [rsp+0xe0],xmm0
    2ff6:	00 
    2ff7:	0f 29 8c 24 f0 00 00 	movaps XMMWORD PTR [rsp+0xf0],xmm1
    2ffe:	00 
    2fff:	0f 29 94 24 00 01 00 	movaps XMMWORD PTR [rsp+0x100],xmm2
    3006:	00 
    3007:	0f 29 9c 24 10 01 00 	movaps XMMWORD PTR [rsp+0x110],xmm3
    300e:	00 
    300f:	0f 29 a4 24 20 01 00 	movaps XMMWORD PTR [rsp+0x120],xmm4
    3016:	00 
    3017:	0f 29 ac 24 30 01 00 	movaps XMMWORD PTR [rsp+0x130],xmm5
    301e:	00 
    301f:	0f 29 b4 24 40 01 00 	movaps XMMWORD PTR [rsp+0x140],xmm6
    3026:	00 
    3027:	0f 29 bc 24 50 01 00 	movaps XMMWORD PTR [rsp+0x150],xmm7
    302e:	00 
    302f:	49 89 f0             	mov    r8,rsi
    3032:	4c 8d 4c 24 08       	lea    r9,[rsp+0x8]
    3037:	ba 01 00 00 00       	mov    edx,0x1
    303c:	48 89 df             	mov    rdi,rbx
    303f:	48 8d 84 24 70 01 00 	lea    rax,[rsp+0x170]
    3046:	00 
    3047:	48 c7 c1 ff ff ff ff 	mov    rcx,0xffffffffffffffff
    304e:	be 00 10 00 00       	mov    esi,0x1000
    3053:	c7 44 24 08 10 00 00 	mov    DWORD PTR [rsp+0x8],0x10
    305a:	00 
    305b:	48 89 44 24 10       	mov    QWORD PTR [rsp+0x10],rax
    3060:	48 8d 84 24 b0 00 00 	lea    rax,[rsp+0xb0]
    3067:	00 
    3068:	c7 44 24 0c 30 00 00 	mov    DWORD PTR [rsp+0xc],0x30
    306f:	00 
    3070:	48 89 44 24 18       	mov    QWORD PTR [rsp+0x18],rax
    3075:	e8 f6 f2 ff ff       	call   2370 <__vsnprintf_chk@plt>
    307a:	3d ff 0f 00 00       	cmp    eax,0xfff
    307f:	7f 1f                	jg     30a0 <__cxa_finalize@plt+0xbf0>
    3081:	48 8d 54 24 20       	lea    rdx,[rsp+0x20]
    3086:	48 89 de             	mov    rsi,rbx
    3089:	bf 01 00 00 00       	mov    edi,0x1
    308e:	e8 6d f2 ff ff       	call   2300 <__xstat@plt>
    3093:	48 81 c4 60 01 00 00 	add    rsp,0x160
    309a:	5b                   	pop    rbx
    309b:	c3                   	ret    
    309c:	0f 1f 40 00          	nop    DWORD PTR [rax+0x0]
    30a0:	b8 ff ff ff ff       	mov    eax,0xffffffff
    30a5:	eb ec                	jmp    3093 <__cxa_finalize@plt+0xbe3>
    30a7:	66 0f 1f 84 00 00 00 	nop    WORD PTR [rax+rax*1+0x0]
    30ae:	00 00 
    30b0:	55                   	push   rbp
    30b1:	48 89 d1             	mov    rcx,rdx
    30b4:	48 89 f5             	mov    rbp,rsi
    30b7:	31 c0                	xor    eax,eax
    30b9:	53                   	push   rbx
    30ba:	48 8d 15 1f 3e 00 00 	lea    rdx,[rip+0x3e1f]        # 6ee0 <__cxa_finalize@plt+0x4a30>
    30c1:	be 00 10 00 00       	mov    esi,0x1000
    30c6:	48 89 fb             	mov    rbx,rdi
    30c9:	48 83 ec 08          	sub    rsp,0x8
    30cd:	e8 fe f0 ff ff       	call   21d0 <snprintf@plt>
    30d2:	3d ff 0f 00 00       	cmp    eax,0xfff
    30d7:	7f 37                	jg     3110 <__cxa_finalize@plt+0xc60>
    30d9:	be 3a 00 00 00       	mov    esi,0x3a
    30de:	48 89 df             	mov    rdi,rbx
    30e1:	e8 da f0 ff ff       	call   21c0 <strchr@plt>
    30e6:	48 85 c0             	test   rax,rax
    30e9:	74 25                	je     3110 <__cxa_finalize@plt+0xc60>
    30eb:	c6 00 00             	mov    BYTE PTR [rax],0x0
    30ee:	48 8d 70 01          	lea    rsi,[rax+0x1]
    30f2:	48 89 ef             	mov    rdi,rbp
    30f5:	e8 d6 ef ff ff       	call   20d0 <strcpy@plt>
    30fa:	80 3b 00             	cmp    BYTE PTR [rbx],0x0
    30fd:	74 11                	je     3110 <__cxa_finalize@plt+0xc60>
    30ff:	80 7d 00 00          	cmp    BYTE PTR [rbp+0x0],0x0
    3103:	74 0b                	je     3110 <__cxa_finalize@plt+0xc60>
    3105:	31 c0                	xor    eax,eax
    3107:	48 83 c4 08          	add    rsp,0x8
    310b:	5b                   	pop    rbx
    310c:	5d                   	pop    rbp
    310d:	c3                   	ret    
    310e:	66 90                	xchg   ax,ax
    3110:	b8 ff ff ff ff       	mov    eax,0xffffffff
    3115:	eb f0                	jmp    3107 <__cxa_finalize@plt+0xc57>
    3117:	66 0f 1f 84 00 00 00 	nop    WORD PTR [rax+rax*1+0x0]
    311e:	00 00 
    3120:	41 57                	push   r15
    3122:	48 89 f2             	mov    rdx,rsi
    3125:	49 89 ff             	mov    r15,rdi
    3128:	41 56                	push   r14
    312a:	41 55                	push   r13
    312c:	41 54                	push   r12
    312e:	55                   	push   rbp
    312f:	53                   	push   rbx
    3130:	48 81 ec 18 50 00 00 	sub    rsp,0x5018
    3137:	48 8b 2f             	mov    rbp,QWORD PTR [rdi]
    313a:	48 8d 9c 24 10 10 00 	lea    rbx,[rsp+0x1010]
    3141:	00 
    3142:	4c 8d 6c 24 10       	lea    r13,[rsp+0x10]
    3147:	48 89 de             	mov    rsi,rbx
    314a:	4c 89 ef             	mov    rdi,r13
    314d:	e8 5e ff ff ff       	call   30b0 <__cxa_finalize@plt+0xc00>
    3152:	83 f8 ff             	cmp    eax,0xffffffff
    3155:	0f 84 81 00 00 00    	je     31dc <__cxa_finalize@plt+0xd2c>
    315b:	4c 8d a4 24 10 40 00 	lea    r12,[rsp+0x4010]
    3162:	00 
    3163:	4c 89 ee             	mov    rsi,r13
    3166:	4c 8d b4 24 10 20 00 	lea    r14,[rsp+0x2010]
    316d:	00 
    316e:	4c 89 e7             	mov    rdi,r12
    3171:	e8 da 0a 00 00       	call   3c50 <__cxa_finalize@plt+0x17a0>
    3176:	48 83 ec 08          	sub    rsp,0x8
    317a:	4d 89 e0             	mov    r8,r12
    317d:	4c 89 f7             	mov    rdi,r14
    3180:	48 8d 85 78 10 00 00 	lea    rax,[rbp+0x1078]
    3187:	4c 8d 0d 63 30 00 00 	lea    r9,[rip+0x3063]        # 61f1 <__cxa_finalize@plt+0x3d41>
    318e:	48 89 44 24 10       	mov    QWORD PTR [rsp+0x10],rax
    3193:	48 89 c2             	mov    rdx,rax
    3196:	31 c0                	xor    eax,eax
    3198:	4c 89 c9             	mov    rcx,r9
    319b:	53                   	push   rbx
    319c:	48 8d 35 69 30 00 00 	lea    rsi,[rip+0x3069]        # 620c <__cxa_finalize@plt+0x3d5c>
    31a3:	e8 18 fe ff ff       	call   2fc0 <__cxa_finalize@plt+0xb10>
    31a8:	5a                   	pop    rdx
    31a9:	59                   	pop    rcx
    31aa:	85 c0                	test   eax,eax
    31ac:	75 42                	jne    31f0 <__cxa_finalize@plt+0xd40>
    31ae:	48 89 ef             	mov    rdi,rbp
    31b1:	e8 3a 23 00 00       	call   54f0 <__cxa_finalize@plt+0x3040>
    31b6:	83 f8 ff             	cmp    eax,0xffffffff
    31b9:	0f 84 61 02 00 00    	je     3420 <__cxa_finalize@plt+0xf70>
    31bf:	48 8d b5 78 20 00 00 	lea    rsi,[rbp+0x2078]
    31c6:	48 89 da             	mov    rdx,rbx
    31c9:	4c 89 f7             	mov    rdi,r14
    31cc:	e8 af 27 00 00       	call   5980 <__cxa_finalize@plt+0x34d0>
    31d1:	83 f8 ff             	cmp    eax,0xffffffff
    31d4:	0f 84 46 02 00 00    	je     3420 <__cxa_finalize@plt+0xf70>
    31da:	31 c0                	xor    eax,eax
    31dc:	48 81 c4 18 50 00 00 	add    rsp,0x5018
    31e3:	5b                   	pop    rbx
    31e4:	5d                   	pop    rbp
    31e5:	41 5c                	pop    r12
    31e7:	41 5d                	pop    r13
    31e9:	41 5e                	pop    r14
    31eb:	41 5f                	pop    r15
    31ed:	c3                   	ret    
    31ee:	66 90                	xchg   ax,ax
    31f0:	48 83 ec 08          	sub    rsp,0x8
    31f4:	4c 8d 15 f6 2f 00 00 	lea    r10,[rip+0x2ff6]        # 61f1 <__cxa_finalize@plt+0x3d41>
    31fb:	31 c0                	xor    eax,eax
    31fd:	4c 89 f7             	mov    rdi,r14
    3200:	53                   	push   rbx
    3201:	4d 89 d1             	mov    r9,r10
    3204:	4c 89 d1             	mov    rcx,r10
    3207:	4c 8d 05 f7 2f 00 00 	lea    r8,[rip+0x2ff7]        # 6205 <__cxa_finalize@plt+0x3d55>
    320e:	41 52                	push   r10
    3210:	48 8d 35 f1 2f 00 00 	lea    rsi,[rip+0x2ff1]        # 6208 <__cxa_finalize@plt+0x3d58>
    3217:	41 54                	push   r12
    3219:	48 8b 54 24 28       	mov    rdx,QWORD PTR [rsp+0x28]
    321e:	e8 9d fd ff ff       	call   2fc0 <__cxa_finalize@plt+0xb10>
    3223:	48 83 c4 20          	add    rsp,0x20
    3227:	4c 8d 15 c3 2f 00 00 	lea    r10,[rip+0x2fc3]        # 61f1 <__cxa_finalize@plt+0x3d41>
    322e:	85 c0                	test   eax,eax
    3230:	0f 84 78 ff ff ff    	je     31ae <__cxa_finalize@plt+0xcfe>
    3236:	4c 8b 74 24 08       	mov    r14,QWORD PTR [rsp+0x8]
    323b:	31 c0                	xor    eax,eax
    323d:	4d 89 e8             	mov    r8,r13
    3240:	4c 89 d1             	mov    rcx,r10
    3243:	4c 8d a4 24 10 30 00 	lea    r12,[rsp+0x3010]
    324a:	00 
    324b:	48 8d 35 c5 2f 00 00 	lea    rsi,[rip+0x2fc5]        # 6217 <__cxa_finalize@plt+0x3d67>
    3252:	4c 89 f2             	mov    rdx,r14
    3255:	4c 89 e7             	mov    rdi,r12
    3258:	e8 63 fd ff ff       	call   2fc0 <__cxa_finalize@plt+0xb10>
    325d:	85 c0                	test   eax,eax
    325f:	0f 85 a3 00 00 00    	jne    3308 <__cxa_finalize@plt+0xe58>
    3265:	49 8b 3f             	mov    rdi,QWORD PTR [r15]
    3268:	e8 83 22 00 00       	call   54f0 <__cxa_finalize@plt+0x3040>
    326d:	83 f8 ff             	cmp    eax,0xffffffff
    3270:	0f 84 ea 00 00 00    	je     3360 <__cxa_finalize@plt+0xeb0>
    3276:	49 8b 6f 08          	mov    rbp,QWORD PTR [r15+0x8]
    327a:	48 85 ed             	test   rbp,rbp
    327d:	0f 84 fd 00 00 00    	je     3380 <__cxa_finalize@plt+0xed0>
    3283:	4d 8d 6f 10          	lea    r13,[r15+0x10]
    3287:	eb 1b                	jmp    32a4 <__cxa_finalize@plt+0xdf4>
    3289:	0f 1f 80 00 00 00 00 	nop    DWORD PTR [rax+0x0]
    3290:	4d 89 ee             	mov    r14,r13
    3293:	49 83 c5 08          	add    r13,0x8
    3297:	49 8b 6d f8          	mov    rbp,QWORD PTR [r13-0x8]
    329b:	48 85 ed             	test   rbp,rbp
    329e:	0f 84 e4 00 00 00    	je     3388 <__cxa_finalize@plt+0xed8>
    32a4:	48 8d 7d 78          	lea    rdi,[rbp+0x78]
    32a8:	4c 89 e6             	mov    rsi,r12
    32ab:	e8 90 ef ff ff       	call   2240 <strcmp@plt>
    32b0:	85 c0                	test   eax,eax
    32b2:	75 dc                	jne    3290 <__cxa_finalize@plt+0xde0>
    32b4:	4c 8b 65 10          	mov    r12,QWORD PTR [rbp+0x10]
    32b8:	4c 3b 65 18          	cmp    r12,QWORD PTR [rbp+0x18]
    32bc:	0f 83 18 ff ff ff    	jae    31da <__cxa_finalize@plt+0xd2a>
    32c2:	66 0f 1f 44 00 00    	nop    WORD PTR [rax+rax*1+0x0]
    32c8:	49 8d 7c 24 12       	lea    rdi,[r12+0x12]
    32cd:	48 89 de             	mov    rsi,rbx
    32d0:	e8 6b ef ff ff       	call   2240 <strcmp@plt>
    32d5:	85 c0                	test   eax,eax
    32d7:	75 13                	jne    32ec <__cxa_finalize@plt+0xe3c>
    32d9:	4c 89 e6             	mov    rsi,r12
    32dc:	48 89 ef             	mov    rdi,rbp
    32df:	e8 3c f6 ff ff       	call   2920 <__cxa_finalize@plt+0x470>
    32e4:	85 c0                	test   eax,eax
    32e6:	0f 85 74 01 00 00    	jne    3460 <__cxa_finalize@plt+0xfb0>
    32ec:	4c 89 e6             	mov    rsi,r12
    32ef:	48 89 ef             	mov    rdi,rbp
    32f2:	e8 c9 f3 ff ff       	call   26c0 <__cxa_finalize@plt+0x210>
    32f7:	49 89 c4             	mov    r12,rax
    32fa:	48 3b 45 18          	cmp    rax,QWORD PTR [rbp+0x18]
    32fe:	72 c8                	jb     32c8 <__cxa_finalize@plt+0xe18>
    3300:	e9 d5 fe ff ff       	jmp    31da <__cxa_finalize@plt+0xd2a>
    3305:	0f 1f 00             	nop    DWORD PTR [rax]
    3308:	4c 8d 15 e2 2e 00 00 	lea    r10,[rip+0x2ee2]        # 61f1 <__cxa_finalize@plt+0x3d41>
    330f:	31 c0                	xor    eax,eax
    3311:	4d 89 e8             	mov    r8,r13
    3314:	4c 89 f2             	mov    rdx,r14
    3317:	4c 89 d1             	mov    rcx,r10
    331a:	48 8d 35 01 2f 00 00 	lea    rsi,[rip+0x2f01]        # 6222 <__cxa_finalize@plt+0x3d72>
    3321:	4c 89 e7             	mov    rdi,r12
    3324:	e8 97 fc ff ff       	call   2fc0 <__cxa_finalize@plt+0xb10>
    3329:	4c 8d 15 c1 2e 00 00 	lea    r10,[rip+0x2ec1]        # 61f1 <__cxa_finalize@plt+0x3d41>
    3330:	85 c0                	test   eax,eax
    3332:	0f 84 2d ff ff ff    	je     3265 <__cxa_finalize@plt+0xdb5>
    3338:	48 8b 54 24 08       	mov    rdx,QWORD PTR [rsp+0x8]
    333d:	31 c0                	xor    eax,eax
    333f:	4d 89 e8             	mov    r8,r13
    3342:	4c 89 d1             	mov    rcx,r10
    3345:	48 8d 35 c4 2e 00 00 	lea    rsi,[rip+0x2ec4]        # 6210 <__cxa_finalize@plt+0x3d60>
    334c:	4c 89 e7             	mov    rdi,r12
    334f:	e8 6c fc ff ff       	call   2fc0 <__cxa_finalize@plt+0xb10>
    3354:	85 c0                	test   eax,eax
    3356:	0f 84 09 ff ff ff    	je     3265 <__cxa_finalize@plt+0xdb5>
    335c:	0f 1f 40 00          	nop    DWORD PTR [rax+0x0]
    3360:	31 c0                	xor    eax,eax
    3362:	4c 89 e6             	mov    rsi,r12
    3365:	48 8d 3d c1 2e 00 00 	lea    rdi,[rip+0x2ec1]        # 622d <__cxa_finalize@plt+0x3d7d>
    336c:	e8 cf fa ff ff       	call   2e40 <__cxa_finalize@plt+0x990>
    3371:	b8 ff ff ff ff       	mov    eax,0xffffffff
    3376:	e9 61 fe ff ff       	jmp    31dc <__cxa_finalize@plt+0xd2c>
    337b:	0f 1f 44 00 00       	nop    DWORD PTR [rax+rax*1+0x0]
    3380:	4d 8d 77 08          	lea    r14,[r15+0x8]
    3384:	0f 1f 40 00          	nop    DWORD PTR [rax+0x0]
    3388:	31 c0                	xor    eax,eax
    338a:	e8 b1 f8 ff ff       	call   2c40 <__cxa_finalize@plt+0x790>
    338f:	48 89 c5             	mov    rbp,rax
    3392:	48 85 c0             	test   rax,rax
    3395:	74 c9                	je     3360 <__cxa_finalize@plt+0xeb0>
    3397:	48 8d 78 78          	lea    rdi,[rax+0x78]
    339b:	4c 89 e1             	mov    rcx,r12
    339e:	be 00 10 00 00       	mov    esi,0x1000
    33a3:	31 c0                	xor    eax,eax
    33a5:	48 8d 15 34 3b 00 00 	lea    rdx,[rip+0x3b34]        # 6ee0 <__cxa_finalize@plt+0x4a30>
    33ac:	e8 1f ee ff ff       	call   21d0 <snprintf@plt>
    33b1:	49 8b 07             	mov    rax,QWORD PTR [r15]
    33b4:	be 00 10 00 00       	mov    esi,0x1000
    33b9:	48 8d bd 78 10 00 00 	lea    rdi,[rbp+0x1078]
    33c0:	48 8d 15 19 3b 00 00 	lea    rdx,[rip+0x3b19]        # 6ee0 <__cxa_finalize@plt+0x4a30>
    33c7:	48 8d 88 78 10 00 00 	lea    rcx,[rax+0x1078]
    33ce:	31 c0                	xor    eax,eax
    33d0:	e8 fb ed ff ff       	call   21d0 <snprintf@plt>
    33d5:	49 8b 07             	mov    rax,QWORD PTR [r15]
    33d8:	be 00 10 00 00       	mov    esi,0x1000
    33dd:	48 8d bd 78 20 00 00 	lea    rdi,[rbp+0x2078]
    33e4:	48 8d 15 f5 3a 00 00 	lea    rdx,[rip+0x3af5]        # 6ee0 <__cxa_finalize@plt+0x4a30>
    33eb:	48 8d 88 78 20 00 00 	lea    rcx,[rax+0x2078]
    33f2:	31 c0                	xor    eax,eax
    33f4:	e8 d7 ed ff ff       	call   21d0 <snprintf@plt>
    33f9:	49 8b 07             	mov    rax,QWORD PTR [r15]
    33fc:	48 89 ef             	mov    rdi,rbp
    33ff:	8b 80 78 40 00 00    	mov    eax,DWORD PTR [rax+0x4078]
    3405:	89 85 78 40 00 00    	mov    DWORD PTR [rbp+0x4078],eax
    340b:	e8 f0 f5 ff ff       	call   2a00 <__cxa_finalize@plt+0x550>
    3410:	85 c0                	test   eax,eax
    3412:	75 27                	jne    343b <__cxa_finalize@plt+0xf8b>
    3414:	49 89 2e             	mov    QWORD PTR [r14],rbp
    3417:	e9 98 fe ff ff       	jmp    32b4 <__cxa_finalize@plt+0xe04>
    341c:	0f 1f 40 00          	nop    DWORD PTR [rax+0x0]
    3420:	31 c0                	xor    eax,eax
    3422:	48 89 de             	mov    rsi,rbx
    3425:	48 8d 3d c7 2d 00 00 	lea    rdi,[rip+0x2dc7]        # 61f3 <__cxa_finalize@plt+0x3d43>
    342c:	e8 0f fa ff ff       	call   2e40 <__cxa_finalize@plt+0x990>
    3431:	b8 ff ff ff ff       	mov    eax,0xffffffff
    3436:	e9 a1 fd ff ff       	jmp    31dc <__cxa_finalize@plt+0xd2c>
    343b:	4c 89 e2             	mov    rdx,r12
    343e:	48 8d 35 ff 2d 00 00 	lea    rsi,[rip+0x2dff]        # 6244 <__cxa_finalize@plt+0x3d94>
    3445:	48 8d 3d 5b 2c 00 00 	lea    rdi,[rip+0x2c5b]        # 60a7 <__cxa_finalize@plt+0x3bf7>
    344c:	31 c0                	xor    eax,eax
    344e:	e8 bd fa ff ff       	call   2f10 <__cxa_finalize@plt+0xa60>
    3453:	48 89 ef             	mov    rdi,rbp
    3456:	e8 25 f8 ff ff       	call   2c80 <__cxa_finalize@plt+0x7d0>
    345b:	e9 00 ff ff ff       	jmp    3360 <__cxa_finalize@plt+0xeb0>
    3460:	31 c0                	xor    eax,eax
    3462:	48 89 de             	mov    rsi,rbx
    3465:	48 8d 3d f2 2d 00 00 	lea    rdi,[rip+0x2df2]        # 625e <__cxa_finalize@plt+0x3dae>
    346c:	e8 cf f9 ff ff       	call   2e40 <__cxa_finalize@plt+0x990>
    3471:	48 89 ef             	mov    rdi,rbp
    3474:	e8 07 f8 ff ff       	call   2c80 <__cxa_finalize@plt+0x7d0>
    3479:	83 c8 ff             	or     eax,0xffffffff
    347c:	e9 5b fd ff ff       	jmp    31dc <__cxa_finalize@plt+0xd2c>
    3481:	66 66 2e 0f 1f 84 00 	data16 nop WORD PTR cs:[rax+rax*1+0x0]
    3488:	00 00 00 00 
    348c:	0f 1f 40 00          	nop    DWORD PTR [rax+0x0]
    3490:	48 8b 47 10          	mov    rax,QWORD PTR [rdi+0x10]
    3494:	48 3b 47 18          	cmp    rax,QWORD PTR [rdi+0x18]
    3498:	73 77                	jae    3511 <__cxa_finalize@plt+0x1061>
    349a:	0f b6 70 11          	movzx  esi,BYTE PTR [rax+0x11]
    349e:	8d 56 a6             	lea    edx,[rsi-0x5a]
    34a1:	80 fa 1e             	cmp    dl,0x1e
    34a4:	76 4a                	jbe    34f0 <__cxa_finalize@plt+0x1040>
    34a6:	55                   	push   rbp
    34a7:	bd 01 05 00 40       	mov    ebp,0x40000501
    34ac:	53                   	push   rbx
    34ad:	48 89 fb             	mov    rbx,rdi
    34b0:	48 83 ec 08          	sub    rsp,0x8
    34b4:	0f 1f 40 00          	nop    DWORD PTR [rax+0x0]
    34b8:	48 89 c6             	mov    rsi,rax
    34bb:	48 89 df             	mov    rdi,rbx
    34be:	e8 fd f1 ff ff       	call   26c0 <__cxa_finalize@plt+0x210>
    34c3:	48 39 43 18          	cmp    QWORD PTR [rbx+0x18],rax
    34c7:	76 3f                	jbe    3508 <__cxa_finalize@plt+0x1058>
    34c9:	0f b6 48 11          	movzx  ecx,BYTE PTR [rax+0x11]
    34cd:	8d 51 a6             	lea    edx,[rcx-0x5a]
    34d0:	80 fa 1e             	cmp    dl,0x1e
    34d3:	77 e3                	ja     34b8 <__cxa_finalize@plt+0x1008>
    34d5:	48 0f a3 d5          	bt     rbp,rdx
    34d9:	73 dd                	jae    34b8 <__cxa_finalize@plt+0x1008>
    34db:	48 83 c4 08          	add    rsp,0x8
    34df:	b8 01 00 00 00       	mov    eax,0x1
    34e4:	5b                   	pop    rbx
    34e5:	5d                   	pop    rbp
    34e6:	c3                   	ret    
    34e7:	66 0f 1f 84 00 00 00 	nop    WORD PTR [rax+rax*1+0x0]
    34ee:	00 00 
    34f0:	b9 01 05 00 40       	mov    ecx,0x40000501
    34f5:	48 0f a3 d1          	bt     rcx,rdx
    34f9:	73 ab                	jae    34a6 <__cxa_finalize@plt+0xff6>
    34fb:	b8 01 00 00 00       	mov    eax,0x1
    3500:	c3                   	ret    
    3501:	0f 1f 80 00 00 00 00 	nop    DWORD PTR [rax+0x0]
    3508:	48 83 c4 08          	add    rsp,0x8
    350c:	31 c0                	xor    eax,eax
    350e:	5b                   	pop    rbx
    350f:	5d                   	pop    rbp
    3510:	c3                   	ret    
    3511:	31 c0                	xor    eax,eax
    3513:	c3                   	ret    
    3514:	66 66 2e 0f 1f 84 00 	data16 nop WORD PTR cs:[rax+rax*1+0x0]
    351b:	00 00 00 00 
    351f:	90                   	nop
    3520:	41 55                	push   r13
    3522:	b9 13 00 00 00       	mov    ecx,0x13
    3527:	31 c0                	xor    eax,eax
    3529:	41 54                	push   r12
    352b:	55                   	push   rbp
    352c:	48 89 fd             	mov    rbp,rdi
    352f:	53                   	push   rbx
    3530:	48 81 ec a8 00 00 00 	sub    rsp,0xa8
    3537:	48 8b 5f 10          	mov    rbx,QWORD PTR [rdi+0x10]
    353b:	49 89 e4             	mov    r12,rsp
    353e:	49 8d 54 24 08       	lea    rdx,[r12+0x8]
    3543:	48 89 d7             	mov    rdi,rdx
    3546:	f3 48 ab             	rep stos QWORD PTR es:[rdi],rax
    3549:	48 89 2c 24          	mov    QWORD PTR [rsp],rbp
    354d:	48 3b 5d 18          	cmp    rbx,QWORD PTR [rbp+0x18]
    3551:	72 29                	jb     357c <__cxa_finalize@plt+0x10cc>
    3553:	e9 b4 00 00 00       	jmp    360c <__cxa_finalize@plt+0x115c>
    3558:	0f 1f 84 00 00 00 00 	nop    DWORD PTR [rax+rax*1+0x0]
    355f:	00 
    3560:	3c 78                	cmp    al,0x78
    3562:	74 27                	je     358b <__cxa_finalize@plt+0x10db>
    3564:	3c 64                	cmp    al,0x64
    3566:	74 48                	je     35b0 <__cxa_finalize@plt+0x1100>
    3568:	48 89 de             	mov    rsi,rbx
    356b:	48 89 ef             	mov    rdi,rbp
    356e:	e8 4d f1 ff ff       	call   26c0 <__cxa_finalize@plt+0x210>
    3573:	48 89 c3             	mov    rbx,rax
    3576:	48 39 45 18          	cmp    QWORD PTR [rbp+0x18],rax
    357a:	76 54                	jbe    35d0 <__cxa_finalize@plt+0x1120>
    357c:	0f b6 43 11          	movzx  eax,BYTE PTR [rbx+0x11]
    3580:	8d 50 a6             	lea    edx,[rax-0x5a]
    3583:	81 e2 f7 00 00 00    	and    edx,0xf7
    3589:	75 d5                	jne    3560 <__cxa_finalize@plt+0x10b0>
    358b:	48 89 de             	mov    rsi,rbx
    358e:	48 89 ef             	mov    rdi,rbp
    3591:	e8 8a f3 ff ff       	call   2920 <__cxa_finalize@plt+0x470>
    3596:	85 c0                	test   eax,eax
    3598:	74 ce                	je     3568 <__cxa_finalize@plt+0x10b8>
    359a:	48 8b 7c 24 08       	mov    rdi,QWORD PTR [rsp+0x8]
    359f:	41 bd ff ff ff ff    	mov    r13d,0xffffffff
    35a5:	eb 31                	jmp    35d8 <__cxa_finalize@plt+0x1128>
    35a7:	66 0f 1f 84 00 00 00 	nop    WORD PTR [rax+rax*1+0x0]
    35ae:	00 00 
    35b0:	48 8d 73 12          	lea    rsi,[rbx+0x12]
    35b4:	4c 89 e7             	mov    rdi,r12
    35b7:	e8 64 fb ff ff       	call   3120 <__cxa_finalize@plt+0xc70>
    35bc:	41 89 c5             	mov    r13d,eax
    35bf:	83 f8 ff             	cmp    eax,0xffffffff
    35c2:	75 a4                	jne    3568 <__cxa_finalize@plt+0x10b8>
    35c4:	48 8b 7c 24 08       	mov    rdi,QWORD PTR [rsp+0x8]
    35c9:	eb 0d                	jmp    35d8 <__cxa_finalize@plt+0x1128>
    35cb:	0f 1f 44 00 00       	nop    DWORD PTR [rax+rax*1+0x0]
    35d0:	48 8b 7c 24 08       	mov    rdi,QWORD PTR [rsp+0x8]
    35d5:	45 31 ed             	xor    r13d,r13d
    35d8:	49 83 c4 10          	add    r12,0x10
    35dc:	48 85 ff             	test   rdi,rdi
    35df:	74 1a                	je     35fb <__cxa_finalize@plt+0x114b>
    35e1:	0f 1f 80 00 00 00 00 	nop    DWORD PTR [rax+0x0]
    35e8:	e8 93 f6 ff ff       	call   2c80 <__cxa_finalize@plt+0x7d0>
    35ed:	49 83 c4 08          	add    r12,0x8
    35f1:	49 8b 7c 24 f8       	mov    rdi,QWORD PTR [r12-0x8]
    35f6:	48 85 ff             	test   rdi,rdi
    35f9:	75 ed                	jne    35e8 <__cxa_finalize@plt+0x1138>
    35fb:	48 81 c4 a8 00 00 00 	add    rsp,0xa8
    3602:	44 89 e8             	mov    eax,r13d
    3605:	5b                   	pop    rbx
    3606:	5d                   	pop    rbp
    3607:	41 5c                	pop    r12
    3609:	41 5d                	pop    r13
    360b:	c3                   	ret    
    360c:	45 31 ed             	xor    r13d,r13d
    360f:	eb ea                	jmp    35fb <__cxa_finalize@plt+0x114b>
    3611:	66 66 2e 0f 1f 84 00 	data16 nop WORD PTR cs:[rax+rax*1+0x0]
    3618:	00 00 00 00 
    361c:	0f 1f 40 00          	nop    DWORD PTR [rax+0x0]
    3620:	41 57                	push   r15
    3622:	41 56                	push   r14
    3624:	41 55                	push   r13
    3626:	41 54                	push   r12
    3628:	55                   	push   rbp
    3629:	53                   	push   rbx
    362a:	48 89 fb             	mov    rbx,rdi
    362d:	48 81 ec 18 10 00 00 	sub    rsp,0x1018
    3634:	4c 8b 7f 10          	mov    r15,QWORD PTR [rdi+0x10]
    3638:	48 8d 3d 34 2c 00 00 	lea    rdi,[rip+0x2c34]        # 6273 <__cxa_finalize@plt+0x3dc3>
    363f:	ff 15 3b 6d 00 00    	call   QWORD PTR [rip+0x6d3b]        # a380 <stderr@@GLIBC_2.2.5+0xe0>
    3645:	48 89 44 24 08       	mov    QWORD PTR [rsp+0x8],rax
    364a:	48 85 c0             	test   rax,rax
    364d:	0f 84 50 01 00 00    	je     37a3 <__cxa_finalize@plt+0x12f3>
    3653:	48 8b 7c 24 08       	mov    rdi,QWORD PTR [rsp+0x8]
    3658:	ff 15 f2 6c 00 00    	call   QWORD PTR [rip+0x6cf2]        # a350 <stderr@@GLIBC_2.2.5+0xb0>
    365e:	49 89 c4             	mov    r12,rax
    3661:	48 85 c0             	test   rax,rax
    3664:	0f 84 4c 01 00 00    	je     37b6 <__cxa_finalize@plt+0x1306>
    366a:	48 8d 44 24 10       	lea    rax,[rsp+0x10]
    366f:	48 89 04 24          	mov    QWORD PTR [rsp],rax
    3673:	4c 3b 7b 18          	cmp    r15,QWORD PTR [rbx+0x18]
    3677:	72 1f                	jb     3698 <__cxa_finalize@plt+0x11e8>
    3679:	e9 c2 00 00 00       	jmp    3740 <__cxa_finalize@plt+0x1290>
    367e:	66 90                	xchg   ax,ax
    3680:	4c 89 fe             	mov    rsi,r15
    3683:	48 89 df             	mov    rdi,rbx
    3686:	e8 35 f0 ff ff       	call   26c0 <__cxa_finalize@plt+0x210>
    368b:	49 89 c7             	mov    r15,rax
    368e:	48 39 43 18          	cmp    QWORD PTR [rbx+0x18],rax
    3692:	0f 86 a8 00 00 00    	jbe    3740 <__cxa_finalize@plt+0x1290>
    3698:	41 80 7f 11 73       	cmp    BYTE PTR [r15+0x11],0x73
    369d:	75 e1                	jne    3680 <__cxa_finalize@plt+0x11d0>
    369f:	4c 89 fe             	mov    rsi,r15
    36a2:	48 89 df             	mov    rdi,rbx
    36a5:	4d 8d 77 12          	lea    r14,[r15+0x12]
    36a9:	e8 42 f0 ff ff       	call   26f0 <__cxa_finalize@plt+0x240>
    36ae:	48 8b 3c 24          	mov    rdi,QWORD PTR [rsp]
    36b2:	4d 89 f1             	mov    r9,r14
    36b5:	4c 8d 05 c0 2b 00 00 	lea    r8,[rip+0x2bc0]        # 627c <__cxa_finalize@plt+0x3dcc>
    36bc:	48 89 c5             	mov    rbp,rax
    36bf:	b9 00 10 00 00       	mov    ecx,0x1000
    36c4:	31 c0                	xor    eax,eax
    36c6:	ba 01 00 00 00       	mov    edx,0x1
    36cb:	be 00 10 00 00       	mov    esi,0x1000
    36d0:	e8 7b e9 ff ff       	call   2050 <__snprintf_chk@plt>
    36d5:	3d ff 0f 00 00       	cmp    eax,0xfff
    36da:	7f 78                	jg     3754 <__cxa_finalize@plt+0x12a4>
    36dc:	48 8b 3c 24          	mov    rdi,QWORD PTR [rsp]
    36e0:	ff 15 0a 6c 00 00    	call   QWORD PTR [rip+0x6c0a]        # a2f0 <stderr@@GLIBC_2.2.5+0x50>
    36e6:	48 8d 35 ac 2b 00 00 	lea    rsi,[rip+0x2bac]        # 6299 <__cxa_finalize@plt+0x3de9>
    36ed:	48 8b 7c 24 08       	mov    rdi,QWORD PTR [rsp+0x8]
    36f2:	49 89 c5             	mov    r13,rax
    36f5:	48 89 c2             	mov    rdx,rax
    36f8:	ff 15 3a 6c 00 00    	call   QWORD PTR [rip+0x6c3a]        # a338 <stderr@@GLIBC_2.2.5+0x98>
    36fe:	4c 89 ef             	mov    rdi,r13
    3701:	ff 15 e9 6c 00 00    	call   QWORD PTR [rip+0x6ce9]        # a3f0 <stderr@@GLIBC_2.2.5+0x150>
    3707:	41 8b 77 0c          	mov    esi,DWORD PTR [r15+0xc]
    370b:	48 89 ef             	mov    rdi,rbp
    370e:	0f ce                	bswap  esi
    3710:	89 f6                	mov    esi,esi
    3712:	ff 15 98 6b 00 00    	call   QWORD PTR [rip+0x6b98]        # a2b0 <stderr@@GLIBC_2.2.5+0x10>
    3718:	48 85 c0             	test   rax,rax
    371b:	74 4c                	je     3769 <__cxa_finalize@plt+0x12b9>
    371d:	4c 89 e2             	mov    rdx,r12
    3720:	4c 89 e6             	mov    rsi,r12
    3723:	48 89 c7             	mov    rdi,rax
    3726:	ff 15 8c 6b 00 00    	call   QWORD PTR [rip+0x6b8c]        # a2b8 <stderr@@GLIBC_2.2.5+0x18>
    372c:	48 85 c0             	test   rax,rax
    372f:	74 54                	je     3785 <__cxa_finalize@plt+0x12d5>
    3731:	48 89 ef             	mov    rdi,rbp
    3734:	e8 37 e9 ff ff       	call   2070 <free@plt>
    3739:	e9 42 ff ff ff       	jmp    3680 <__cxa_finalize@plt+0x11d0>
    373e:	66 90                	xchg   ax,ax
    3740:	31 c0                	xor    eax,eax
    3742:	48 81 c4 18 10 00 00 	add    rsp,0x1018
    3749:	5b                   	pop    rbx
    374a:	5d                   	pop    rbp
    374b:	41 5c                	pop    r12
    374d:	41 5d                	pop    r13
    374f:	41 5e                	pop    r14
    3751:	41 5f                	pop    r15
    3753:	c3                   	ret    
    3754:	31 c0                	xor    eax,eax
    3756:	48 8d 3d 25 2b 00 00 	lea    rdi,[rip+0x2b25]        # 6282 <__cxa_finalize@plt+0x3dd2>
    375d:	e8 de f6 ff ff       	call   2e40 <__cxa_finalize@plt+0x990>
    3762:	b8 ff ff ff ff       	mov    eax,0xffffffff
    3767:	eb d9                	jmp    3742 <__cxa_finalize@plt+0x1292>
    3769:	4c 89 f6             	mov    rsi,r14
    376c:	48 8d 3d 95 2b 00 00 	lea    rdi,[rip+0x2b95]        # 6308 <__cxa_finalize@plt+0x3e58>
    3773:	e8 c8 f6 ff ff       	call   2e40 <__cxa_finalize@plt+0x990>
    3778:	ff 15 1a 6c 00 00    	call   QWORD PTR [rip+0x6c1a]        # a398 <stderr@@GLIBC_2.2.5+0xf8>
    377e:	b8 ff ff ff ff       	mov    eax,0xffffffff
    3783:	eb bd                	jmp    3742 <__cxa_finalize@plt+0x1292>
    3785:	ff 15 0d 6c 00 00    	call   QWORD PTR [rip+0x6c0d]        # a398 <stderr@@GLIBC_2.2.5+0xf8>
    378b:	31 c0                	xor    eax,eax
    378d:	4c 89 f6             	mov    rsi,r14
    3790:	48 8d 3d 0b 2b 00 00 	lea    rdi,[rip+0x2b0b]        # 62a2 <__cxa_finalize@plt+0x3df2>
    3797:	e8 a4 f6 ff ff       	call   2e40 <__cxa_finalize@plt+0x990>
    379c:	b8 ff ff ff ff       	mov    eax,0xffffffff
    37a1:	eb 9f                	jmp    3742 <__cxa_finalize@plt+0x1292>
    37a3:	48 8d 3d 16 2b 00 00 	lea    rdi,[rip+0x2b16]        # 62c0 <__cxa_finalize@plt+0x3e10>
    37aa:	e8 91 f6 ff ff       	call   2e40 <__cxa_finalize@plt+0x990>
    37af:	b8 ff ff ff ff       	mov    eax,0xffffffff
    37b4:	eb 8c                	jmp    3742 <__cxa_finalize@plt+0x1292>
    37b6:	31 c0                	xor    eax,eax
    37b8:	48 8d 3d 21 2b 00 00 	lea    rdi,[rip+0x2b21]        # 62e0 <__cxa_finalize@plt+0x3e30>
    37bf:	e8 7c f6 ff ff       	call   2e40 <__cxa_finalize@plt+0x990>
    37c4:	b8 ff ff ff ff       	mov    eax,0xffffffff
    37c9:	e9 74 ff ff ff       	jmp    3742 <__cxa_finalize@plt+0x1292>
    37ce:	66 90                	xchg   ax,ax
    37d0:	41 54                	push   r12
    37d2:	49 89 f4             	mov    r12,rsi
    37d5:	55                   	push   rbp
    37d6:	48 89 fd             	mov    rbp,rdi
    37d9:	48 8d 3d 93 2a 00 00 	lea    rdi,[rip+0x2a93]        # 6273 <__cxa_finalize@plt+0x3dc3>
    37e0:	53                   	push   rbx
    37e1:	ff 15 99 6b 00 00    	call   QWORD PTR [rip+0x6b99]        # a380 <stderr@@GLIBC_2.2.5+0xe0>
    37e7:	48 89 c3             	mov    rbx,rax
    37ea:	48 85 c0             	test   rax,rax
    37ed:	0f 84 b3 00 00 00    	je     38a6 <__cxa_finalize@plt+0x13f6>
    37f3:	48 89 c7             	mov    rdi,rax
    37f6:	ff 15 54 6b 00 00    	call   QWORD PTR [rip+0x6b54]        # a350 <stderr@@GLIBC_2.2.5+0xb0>
    37fc:	48 89 ee             	mov    rsi,rbp
    37ff:	48 89 c7             	mov    rdi,rax
    3802:	ff 15 a8 6b 00 00    	call   QWORD PTR [rip+0x6ba8]        # a3b0 <stderr@@GLIBC_2.2.5+0x110>
    3808:	48 89 c3             	mov    rbx,rax
    380b:	48 85 c0             	test   rax,rax
    380e:	0f 84 88 00 00 00    	je     389c <__cxa_finalize@plt+0x13ec>
    3814:	48 89 c7             	mov    rdi,rax
    3817:	48 8d 35 7b 28 00 00 	lea    rsi,[rip+0x287b]        # 6099 <__cxa_finalize@plt+0x3be9>
    381e:	31 c0                	xor    eax,eax
    3820:	ff 15 22 6b 00 00    	call   QWORD PTR [rip+0x6b22]        # a348 <stderr@@GLIBC_2.2.5+0xa8>
    3826:	48 89 c5             	mov    rbp,rax
    3829:	48 85 c0             	test   rax,rax
    382c:	74 42                	je     3870 <__cxa_finalize@plt+0x13c0>
    382e:	ff 15 74 6b 00 00    	call   QWORD PTR [rip+0x6b74]        # a3a8 <stderr@@GLIBC_2.2.5+0x108>
    3834:	48 89 ef             	mov    rdi,rbp
    3837:	ff 15 1b 6b 00 00    	call   QWORD PTR [rip+0x6b1b]        # a358 <stderr@@GLIBC_2.2.5+0xb8>
    383d:	41 89 04 24          	mov    DWORD PTR [r12],eax
    3841:	ff 15 59 6b 00 00    	call   QWORD PTR [rip+0x6b59]        # a3a0 <stderr@@GLIBC_2.2.5+0x100>
    3847:	48 85 c0             	test   rax,rax
    384a:	75 24                	jne    3870 <__cxa_finalize@plt+0x13c0>
    384c:	45 31 e4             	xor    r12d,r12d
    384f:	48 89 df             	mov    rdi,rbx
    3852:	ff 15 98 6b 00 00    	call   QWORD PTR [rip+0x6b98]        # a3f0 <stderr@@GLIBC_2.2.5+0x150>
    3858:	48 89 ef             	mov    rdi,rbp
    385b:	ff 15 8f 6b 00 00    	call   QWORD PTR [rip+0x6b8f]        # a3f0 <stderr@@GLIBC_2.2.5+0x150>
    3861:	ff 15 41 6b 00 00    	call   QWORD PTR [rip+0x6b41]        # a3a8 <stderr@@GLIBC_2.2.5+0x108>
    3867:	44 89 e0             	mov    eax,r12d
    386a:	5b                   	pop    rbx
    386b:	5d                   	pop    rbp
    386c:	41 5c                	pop    r12
    386e:	c3                   	ret    
    386f:	90                   	nop
    3870:	41 bc ff ff ff ff    	mov    r12d,0xffffffff
    3876:	48 89 df             	mov    rdi,rbx
    3879:	ff 15 71 6b 00 00    	call   QWORD PTR [rip+0x6b71]        # a3f0 <stderr@@GLIBC_2.2.5+0x150>
    387f:	48 89 ef             	mov    rdi,rbp
    3882:	ff 15 68 6b 00 00    	call   QWORD PTR [rip+0x6b68]        # a3f0 <stderr@@GLIBC_2.2.5+0x150>
    3888:	ff 15 0a 6b 00 00    	call   QWORD PTR [rip+0x6b0a]        # a398 <stderr@@GLIBC_2.2.5+0xf8>
    388e:	ff 15 14 6b 00 00    	call   QWORD PTR [rip+0x6b14]        # a3a8 <stderr@@GLIBC_2.2.5+0x108>
    3894:	44 89 e0             	mov    eax,r12d
    3897:	5b                   	pop    rbx
    3898:	5d                   	pop    rbp
    3899:	41 5c                	pop    r12
    389b:	c3                   	ret    
    389c:	31 ed                	xor    ebp,ebp
    389e:	41 bc fe ff ff ff    	mov    r12d,0xfffffffe
    38a4:	eb d0                	jmp    3876 <__cxa_finalize@plt+0x13c6>
    38a6:	31 ed                	xor    ebp,ebp
    38a8:	41 bc ff ff ff ff    	mov    r12d,0xffffffff
    38ae:	eb c6                	jmp    3876 <__cxa_finalize@plt+0x13c6>
    38b0:	c3                   	ret    
    38b1:	66 66 2e 0f 1f 84 00 	data16 nop WORD PTR cs:[rax+rax*1+0x0]
    38b8:	00 00 00 00 
    38bc:	0f 1f 40 00          	nop    DWORD PTR [rax+0x0]
    38c0:	41 54                	push   r12
    38c2:	55                   	push   rbp
    38c3:	53                   	push   rbx
    38c4:	48 89 fb             	mov    rbx,rdi
    38c7:	e8 e4 12 00 00       	call   4bb0 <__cxa_finalize@plt+0x2700>
    38cc:	85 c0                	test   eax,eax
    38ce:	0f 85 ac 00 00 00    	jne    3980 <__cxa_finalize@plt+0x14d0>
    38d4:	c7 83 7c 40 00 00 01 	mov    DWORD PTR [rbx+0x407c],0x1
    38db:	00 00 00 
    38de:	48 89 df             	mov    rdi,rbx
    38e1:	e8 6a 15 00 00       	call   4e50 <__cxa_finalize@plt+0x29a0>
    38e6:	85 c0                	test   eax,eax
    38e8:	0f 85 92 00 00 00    	jne    3980 <__cxa_finalize@plt+0x14d0>
    38ee:	48 89 df             	mov    rdi,rbx
    38f1:	e8 2a 17 00 00       	call   5020 <__cxa_finalize@plt+0x2b70>
    38f6:	85 c0                	test   eax,eax
    38f8:	0f 85 82 00 00 00    	jne    3980 <__cxa_finalize@plt+0x14d0>
    38fe:	48 89 df             	mov    rdi,rbx
    3901:	e8 4a 19 00 00       	call   5250 <__cxa_finalize@plt+0x2da0>
    3906:	85 c0                	test   eax,eax
    3908:	75 76                	jne    3980 <__cxa_finalize@plt+0x14d0>
    390a:	48 8b 05 1f 6b 00 00 	mov    rax,QWORD PTR [rip+0x6b1f]        # a430 <stderr@@GLIBC_2.2.5+0x190>
    3911:	48 83 38 00          	cmp    QWORD PTR [rax],0x0
    3915:	74 11                	je     3928 <__cxa_finalize@plt+0x1478>
    3917:	48 89 df             	mov    rdi,rbx
    391a:	5b                   	pop    rbx
    391b:	5d                   	pop    rbp
    391c:	41 5c                	pop    r12
    391e:	e9 fd fc ff ff       	jmp    3620 <__cxa_finalize@plt+0x1170>
    3923:	0f 1f 44 00 00       	nop    DWORD PTR [rax+rax*1+0x0]
    3928:	31 f6                	xor    esi,esi
    392a:	31 ff                	xor    edi,edi
    392c:	e8 6f ea ff ff       	call   23a0 <setlocale@plt>
    3931:	48 89 c7             	mov    rdi,rax
    3934:	e8 27 eb ff ff       	call   2460 <strdup@plt>
    3939:	48 8d 35 59 27 00 00 	lea    rsi,[rip+0x2759]        # 6099 <__cxa_finalize@plt+0x3be9>
    3940:	31 ff                	xor    edi,edi
    3942:	48 89 c5             	mov    rbp,rax
    3945:	e8 56 ea ff ff       	call   23a0 <setlocale@plt>
    394a:	bf 0e 00 00 00       	mov    edi,0xe
    394f:	e8 fc e9 ff ff       	call   2350 <nl_langinfo@plt>
    3954:	48 89 ee             	mov    rsi,rbp
    3957:	31 ff                	xor    edi,edi
    3959:	49 89 c4             	mov    r12,rax
    395c:	e8 3f ea ff ff       	call   23a0 <setlocale@plt>
    3961:	48 89 ef             	mov    rdi,rbp
    3964:	e8 07 e7 ff ff       	call   2070 <free@plt>
    3969:	48 8b 05 c0 6a 00 00 	mov    rax,QWORD PTR [rip+0x6ac0]        # a430 <stderr@@GLIBC_2.2.5+0x190>
    3970:	48 89 df             	mov    rdi,rbx
    3973:	4c 89 20             	mov    QWORD PTR [rax],r12
    3976:	5b                   	pop    rbx
    3977:	5d                   	pop    rbp
    3978:	41 5c                	pop    r12
    397a:	e9 a1 fc ff ff       	jmp    3620 <__cxa_finalize@plt+0x1170>
    397f:	90                   	nop
    3980:	5b                   	pop    rbx
    3981:	b8 ff ff ff ff       	mov    eax,0xffffffff
    3986:	5d                   	pop    rbp
    3987:	41 5c                	pop    r12
    3989:	c3                   	ret    
    398a:	66 0f 1f 44 00 00    	nop    WORD PTR [rax+rax*1+0x0]
    3990:	e9 0b 19 00 00       	jmp    52a0 <__cxa_finalize@plt+0x2df0>
    3995:	66 66 2e 0f 1f 84 00 	data16 nop WORD PTR cs:[rax+rax*1+0x0]
    399c:	00 00 00 00 
    39a0:	c3                   	ret    
    39a1:	66 2e 0f 1f 84 00 00 	nop    WORD PTR cs:[rax+rax*1+0x0]
    39a8:	00 00 00 
    39ab:	0f 1f 44 00 00       	nop    DWORD PTR [rax+rax*1+0x0]
    39b0:	41 57                	push   r15
    39b2:	31 c0                	xor    eax,eax
    39b4:	41 56                	push   r14
    39b6:	41 55                	push   r13
    39b8:	49 89 f5             	mov    r13,rsi
    39bb:	41 54                	push   r12
    39bd:	55                   	push   rbp
    39be:	53                   	push   rbx
    39bf:	48 81 ec 28 30 00 00 	sub    rsp,0x3028
    39c6:	89 7c 24 0c          	mov    DWORD PTR [rsp+0xc],edi
    39ca:	31 ff                	xor    edi,edi
    39cc:	e8 6f f2 ff ff       	call   2c40 <__cxa_finalize@plt+0x790>
    39d1:	48 85 c0             	test   rax,rax
    39d4:	0f 84 1e 02 00 00    	je     3bf8 <__cxa_finalize@plt+0x1748>
    39da:	48 8d 6c 24 20       	lea    rbp,[rsp+0x20]
    39df:	49 8b 75 00          	mov    rsi,QWORD PTR [r13+0x0]
    39e3:	48 89 c3             	mov    rbx,rax
    39e6:	48 89 ef             	mov    rdi,rbp
    39e9:	e8 22 05 00 00       	call   3f10 <__cxa_finalize@plt+0x1a60>
    39ee:	85 c0                	test   eax,eax
    39f0:	0f 84 02 02 00 00    	je     3bf8 <__cxa_finalize@plt+0x1748>
    39f6:	4c 8d bc 24 20 20 00 	lea    r15,[rsp+0x2020]
    39fd:	00 
    39fe:	48 89 ee             	mov    rsi,rbp
    3a01:	4c 89 ff             	mov    rdi,r15
    3a04:	e8 e7 05 00 00       	call   3ff0 <__cxa_finalize@plt+0x1b40>
    3a09:	85 c0                	test   eax,eax
    3a0b:	0f 84 e7 01 00 00    	je     3bf8 <__cxa_finalize@plt+0x1748>
    3a11:	4c 8d a4 24 20 10 00 	lea    r12,[rsp+0x1020]
    3a18:	00 
    3a19:	48 89 ee             	mov    rsi,rbp
    3a1c:	4c 89 e7             	mov    rdi,r12
    3a1f:	e8 bc 05 00 00       	call   3fe0 <__cxa_finalize@plt+0x1b30>
    3a24:	85 c0                	test   eax,eax
    3a26:	0f 84 cc 01 00 00    	je     3bf8 <__cxa_finalize@plt+0x1748>
    3a2c:	48 8d 3d fd 28 00 00 	lea    rdi,[rip+0x28fd]        # 6330 <__cxa_finalize@plt+0x3e80>
    3a33:	e8 a8 19 00 00       	call   53e0 <__cxa_finalize@plt+0x2f30>
    3a38:	48 8d 3d f1 28 00 00 	lea    rdi,[rip+0x28f1]        # 6330 <__cxa_finalize@plt+0x3e80>
    3a3f:	49 89 c6             	mov    r14,rax
    3a42:	e8 49 1a 00 00       	call   5490 <__cxa_finalize@plt+0x2fe0>
    3a47:	48 89 ee             	mov    rsi,rbp
    3a4a:	48 89 df             	mov    rdi,rbx
    3a4d:	e8 0e f1 ff ff       	call   2b60 <__cxa_finalize@plt+0x6b0>
    3a52:	85 c0                	test   eax,eax
    3a54:	0f 84 e6 00 00 00    	je     3b40 <__cxa_finalize@plt+0x1690>
    3a5a:	48 8d 3d d9 28 00 00 	lea    rdi,[rip+0x28d9]        # 633a <__cxa_finalize@plt+0x3e8a>
    3a61:	e8 7a 19 00 00       	call   53e0 <__cxa_finalize@plt+0x2f30>
    3a66:	49 89 c7             	mov    r15,rax
    3a69:	48 85 c0             	test   rax,rax
    3a6c:	74 23                	je     3a91 <__cxa_finalize@plt+0x15e1>
    3a6e:	31 c9                	xor    ecx,ecx
    3a70:	31 d2                	xor    edx,edx
    3a72:	48 89 c6             	mov    rsi,rax
    3a75:	bf 0f 00 00 00       	mov    edi,0xf
    3a7a:	31 c0                	xor    eax,eax
    3a7c:	e8 2f e8 ff ff       	call   22b0 <prctl@plt>
    3a81:	85 c0                	test   eax,eax
    3a83:	0f 85 a5 01 00 00    	jne    3c2e <__cxa_finalize@plt+0x177e>
    3a89:	4c 89 ff             	mov    rdi,r15
    3a8c:	e8 df e5 ff ff       	call   2070 <free@plt>
    3a91:	48 8d 3d a2 28 00 00 	lea    rdi,[rip+0x28a2]        # 633a <__cxa_finalize@plt+0x3e8a>
    3a98:	e8 f3 19 00 00       	call   5490 <__cxa_finalize@plt+0x2fe0>
    3a9d:	8b 44 24 0c          	mov    eax,DWORD PTR [rsp+0xc]
    3aa1:	4c 89 ab 88 40 00 00 	mov    QWORD PTR [rbx+0x4088],r13
    3aa8:	89 83 80 40 00 00    	mov    DWORD PTR [rbx+0x4080],eax
    3aae:	4d 85 f6             	test   r14,r14
    3ab1:	0f 84 b9 00 00 00    	je     3b70 <__cxa_finalize@plt+0x16c0>
    3ab7:	4c 89 f6             	mov    rsi,r14
    3aba:	4c 89 e7             	mov    rdi,r12
    3abd:	e8 7e e7 ff ff       	call   2240 <strcmp@plt>
    3ac2:	85 c0                	test   eax,eax
    3ac4:	74 49                	je     3b0f <__cxa_finalize@plt+0x165f>
    3ac6:	48 8d ab 78 20 00 00 	lea    rbp,[rbx+0x2078]
    3acd:	31 c0                	xor    eax,eax
    3acf:	4c 89 f1             	mov    rcx,r14
    3ad2:	be 00 10 00 00       	mov    esi,0x1000
    3ad7:	48 8d 15 02 34 00 00 	lea    rdx,[rip+0x3402]        # 6ee0 <__cxa_finalize@plt+0x4a30>
    3ade:	48 89 ef             	mov    rdi,rbp
    3ae1:	e8 ea e6 ff ff       	call   21d0 <snprintf@plt>
    3ae6:	3d ff 0f 00 00       	cmp    eax,0xfff
    3aeb:	0f 8f 07 01 00 00    	jg     3bf8 <__cxa_finalize@plt+0x1748>
    3af1:	48 8d bb 78 30 00 00 	lea    rdi,[rbx+0x3078]
    3af8:	ba 00 10 00 00       	mov    edx,0x1000
    3afd:	48 89 ee             	mov    rsi,rbp
    3b00:	c7 83 78 40 00 00 01 	mov    DWORD PTR [rbx+0x4078],0x1
    3b07:	00 00 00 
    3b0a:	e8 71 e8 ff ff       	call   2380 <__strcpy_chk@plt>
    3b0f:	48 89 df             	mov    rdi,rbx
    3b12:	e8 99 fd ff ff       	call   38b0 <__cxa_finalize@plt+0x1400>
    3b17:	48 89 df             	mov    rdi,rbx
    3b1a:	e8 a1 fd ff ff       	call   38c0 <__cxa_finalize@plt+0x1410>
    3b1f:	48 89 df             	mov    rdi,rbx
    3b22:	89 c5                	mov    ebp,eax
    3b24:	e8 67 fe ff ff       	call   3990 <__cxa_finalize@plt+0x14e0>
    3b29:	48 81 c4 28 30 00 00 	add    rsp,0x3028
    3b30:	89 e8                	mov    eax,ebp
    3b32:	5b                   	pop    rbx
    3b33:	5d                   	pop    rbp
    3b34:	41 5c                	pop    r12
    3b36:	41 5d                	pop    r13
    3b38:	41 5e                	pop    r14
    3b3a:	41 5f                	pop    r15
    3b3c:	c3                   	ret    
    3b3d:	0f 1f 00             	nop    DWORD PTR [rax]
    3b40:	4c 89 fe             	mov    rsi,r15
    3b43:	48 89 df             	mov    rdi,rbx
    3b46:	e8 15 f0 ff ff       	call   2b60 <__cxa_finalize@plt+0x6b0>
    3b4b:	85 c0                	test   eax,eax
    3b4d:	0f 85 07 ff ff ff    	jne    3a5a <__cxa_finalize@plt+0x15aa>
    3b53:	48 89 ee             	mov    rsi,rbp
    3b56:	4c 89 fa             	mov    rdx,r15
    3b59:	48 8d 3d e8 27 00 00 	lea    rdi,[rip+0x27e8]        # 6348 <__cxa_finalize@plt+0x3e98>
    3b60:	bd ff ff ff ff       	mov    ebp,0xffffffff
    3b65:	e8 d6 f2 ff ff       	call   2e40 <__cxa_finalize@plt+0x990>
    3b6a:	eb bd                	jmp    3b29 <__cxa_finalize@plt+0x1679>
    3b6c:	0f 1f 40 00          	nop    DWORD PTR [rax+0x0]
    3b70:	48 89 df             	mov    rdi,rbx
    3b73:	e8 a8 f9 ff ff       	call   3520 <__cxa_finalize@plt+0x1070>
    3b78:	85 c0                	test   eax,eax
    3b7a:	75 7c                	jne    3bf8 <__cxa_finalize@plt+0x1748>
    3b7c:	80 bb 78 20 00 00 00 	cmp    BYTE PTR [rbx+0x2078],0x0
    3b83:	4c 89 e6             	mov    rsi,r12
    3b86:	74 07                	je     3b8f <__cxa_finalize@plt+0x16df>
    3b88:	48 8d b3 78 20 00 00 	lea    rsi,[rbx+0x2078]
    3b8f:	48 8d 3d 9a 27 00 00 	lea    rdi,[rip+0x279a]        # 6330 <__cxa_finalize@plt+0x3e80>
    3b96:	4c 8d 64 24 10       	lea    r12,[rsp+0x10]
    3b9b:	e8 e0 18 00 00       	call   5480 <__cxa_finalize@plt+0x2fd0>
    3ba0:	31 c9                	xor    ecx,ecx
    3ba2:	31 d2                	xor    edx,edx
    3ba4:	31 c0                	xor    eax,eax
    3ba6:	4c 89 e6             	mov    rsi,r12
    3ba9:	bf 10 00 00 00       	mov    edi,0x10
    3bae:	e8 fd e6 ff ff       	call   22b0 <prctl@plt>
    3bb3:	85 c0                	test   eax,eax
    3bb5:	74 51                	je     3c08 <__cxa_finalize@plt+0x1758>
    3bb7:	48 89 df             	mov    rdi,rbx
    3bba:	e8 f1 1e 00 00       	call   5ab0 <__cxa_finalize@plt+0x3600>
    3bbf:	83 f8 ff             	cmp    eax,0xffffffff
    3bc2:	74 34                	je     3bf8 <__cxa_finalize@plt+0x1748>
    3bc4:	31 c0                	xor    eax,eax
    3bc6:	e8 d5 fd ff ff       	call   39a0 <__cxa_finalize@plt+0x14f0>
    3bcb:	8b 54 24 0c          	mov    edx,DWORD PTR [rsp+0xc]
    3bcf:	48 89 ef             	mov    rdi,rbp
    3bd2:	4c 89 e9             	mov    rcx,r13
    3bd5:	48 89 de             	mov    rsi,rbx
    3bd8:	e8 73 1f 00 00       	call   5b50 <__cxa_finalize@plt+0x36a0>
    3bdd:	83 bb 78 40 00 00 01 	cmp    DWORD PTR [rbx+0x4078],0x1
    3be4:	89 c5                	mov    ebp,eax
    3be6:	74 38                	je     3c20 <__cxa_finalize@plt+0x1770>
    3be8:	48 89 df             	mov    rdi,rbx
    3beb:	e8 90 f0 ff ff       	call   2c80 <__cxa_finalize@plt+0x7d0>
    3bf0:	e9 34 ff ff ff       	jmp    3b29 <__cxa_finalize@plt+0x1679>
    3bf5:	0f 1f 00             	nop    DWORD PTR [rax]
    3bf8:	bd ff ff ff ff       	mov    ebp,0xffffffff
    3bfd:	e9 27 ff ff ff       	jmp    3b29 <__cxa_finalize@plt+0x1679>
    3c02:	66 0f 1f 44 00 00    	nop    WORD PTR [rax+rax*1+0x0]
    3c08:	4c 89 e6             	mov    rsi,r12
    3c0b:	48 8d 3d 28 27 00 00 	lea    rdi,[rip+0x2728]        # 633a <__cxa_finalize@plt+0x3e8a>
    3c12:	e8 69 18 00 00       	call   5480 <__cxa_finalize@plt+0x2fd0>
    3c17:	eb 9e                	jmp    3bb7 <__cxa_finalize@plt+0x1707>
    3c19:	0f 1f 80 00 00 00 00 	nop    DWORD PTR [rax+0x0]
    3c20:	48 8d bb 78 20 00 00 	lea    rdi,[rbx+0x2078]
    3c27:	e8 d4 19 00 00       	call   5600 <__cxa_finalize@plt+0x3150>
    3c2c:	eb ba                	jmp    3be8 <__cxa_finalize@plt+0x1738>
    3c2e:	48 8d 3d 3b 27 00 00 	lea    rdi,[rip+0x273b]        # 6370 <__cxa_finalize@plt+0x3ec0>
    3c35:	31 c0                	xor    eax,eax
    3c37:	bd ff ff ff ff       	mov    ebp,0xffffffff
    3c3c:	e8 ff f1 ff ff       	call   2e40 <__cxa_finalize@plt+0x990>
    3c41:	e9 e3 fe ff ff       	jmp    3b29 <__cxa_finalize@plt+0x1679>
    3c46:	66 2e 0f 1f 84 00 00 	nop    WORD PTR cs:[rax+rax*1+0x0]
    3c4d:	00 00 00 
    3c50:	55                   	push   rbp
    3c51:	48 89 f1             	mov    rcx,rsi
    3c54:	48 8d 15 85 32 00 00 	lea    rdx,[rip+0x3285]        # 6ee0 <__cxa_finalize@plt+0x4a30>
    3c5b:	48 89 fd             	mov    rbp,rdi
    3c5e:	53                   	push   rbx
    3c5f:	be 00 10 00 00       	mov    esi,0x1000
    3c64:	31 c0                	xor    eax,eax
    3c66:	48 81 ec 08 10 00 00 	sub    rsp,0x1008
    3c6d:	48 89 e3             	mov    rbx,rsp
    3c70:	48 89 df             	mov    rdi,rbx
    3c73:	e8 58 e5 ff ff       	call   21d0 <snprintf@plt>
    3c78:	31 d2                	xor    edx,edx
    3c7a:	3d ff 0f 00 00       	cmp    eax,0xfff
    3c7f:	7f 2b                	jg     3cac <__cxa_finalize@plt+0x17fc>
    3c81:	48 89 df             	mov    rdi,rbx
    3c84:	e8 57 e5 ff ff       	call   21e0 <dirname@plt>
    3c89:	48 8d 15 50 32 00 00 	lea    rdx,[rip+0x3250]        # 6ee0 <__cxa_finalize@plt+0x4a30>
    3c90:	be 00 10 00 00       	mov    esi,0x1000
    3c95:	48 89 ef             	mov    rdi,rbp
    3c98:	48 89 c1             	mov    rcx,rax
    3c9b:	31 c0                	xor    eax,eax
    3c9d:	e8 2e e5 ff ff       	call   21d0 <snprintf@plt>
    3ca2:	31 d2                	xor    edx,edx
    3ca4:	3d ff 0f 00 00       	cmp    eax,0xfff
    3ca9:	0f 9e c2             	setle  dl
    3cac:	48 81 c4 08 10 00 00 	add    rsp,0x1008
    3cb3:	89 d0                	mov    eax,edx
    3cb5:	5b                   	pop    rbx
    3cb6:	5d                   	pop    rbp
    3cb7:	c3                   	ret    
    3cb8:	0f 1f 84 00 00 00 00 	nop    DWORD PTR [rax+rax*1+0x0]
    3cbf:	00 
    3cc0:	53                   	push   rbx
    3cc1:	48 89 fb             	mov    rbx,rdi
    3cc4:	48 89 f7             	mov    rdi,rsi
    3cc7:	e8 14 e6 ff ff       	call   22e0 <__xpg_basename@plt>
    3ccc:	48 89 df             	mov    rdi,rbx
    3ccf:	48 89 c6             	mov    rsi,rax
    3cd2:	e8 f9 e3 ff ff       	call   20d0 <strcpy@plt>
    3cd7:	b8 01 00 00 00       	mov    eax,0x1
    3cdc:	5b                   	pop    rbx
    3cdd:	c3                   	ret    
    3cde:	66 90                	xchg   ax,ax
    3ce0:	41 54                	push   r12
    3ce2:	48 89 f1             	mov    rcx,rsi
    3ce5:	49 89 d4             	mov    r12,rdx
    3ce8:	be 00 10 00 00       	mov    esi,0x1000
    3ced:	55                   	push   rbp
    3cee:	48 8d 15 eb 31 00 00 	lea    rdx,[rip+0x31eb]        # 6ee0 <__cxa_finalize@plt+0x4a30>
    3cf5:	31 c0                	xor    eax,eax
    3cf7:	53                   	push   rbx
    3cf8:	48 89 fb             	mov    rbx,rdi
    3cfb:	e8 d0 e4 ff ff       	call   21d0 <snprintf@plt>
    3d00:	48 63 c8             	movsxd rcx,eax
    3d03:	48 81 f9 fe 0f 00 00 	cmp    rcx,0xffe
    3d0a:	77 6c                	ja     3d78 <__cxa_finalize@plt+0x18c8>
    3d0c:	80 7c 0b ff 2f       	cmp    BYTE PTR [rbx+rcx*1-0x1],0x2f
    3d11:	74 10                	je     3d23 <__cxa_finalize@plt+0x1873>
    3d13:	48 8d 41 01          	lea    rax,[rcx+0x1]
    3d17:	c6 04 0b 2f          	mov    BYTE PTR [rbx+rcx*1],0x2f
    3d1b:	48 83 c1 02          	add    rcx,0x2
    3d1f:	c6 04 03 00          	mov    BYTE PTR [rbx+rax*1],0x0
    3d23:	bd 00 10 00 00       	mov    ebp,0x1000
    3d28:	4c 89 e7             	mov    rdi,r12
    3d2b:	48 29 cd             	sub    rbp,rcx
    3d2e:	e8 6d e4 ff ff       	call   21a0 <strlen@plt>
    3d33:	48 39 c5             	cmp    rbp,rax
    3d36:	76 40                	jbe    3d78 <__cxa_finalize@plt+0x18c8>
    3d38:	41 80 7c 04 ff 2f    	cmp    BYTE PTR [r12+rax*1-0x1],0x2f
    3d3e:	48 89 ea             	mov    rdx,rbp
    3d41:	4c 89 e6             	mov    rsi,r12
    3d44:	48 89 df             	mov    rdi,rbx
    3d47:	74 0f                	je     3d58 <__cxa_finalize@plt+0x18a8>
    3d49:	e8 a2 e4 ff ff       	call   21f0 <strncat@plt>
    3d4e:	5b                   	pop    rbx
    3d4f:	5d                   	pop    rbp
    3d50:	41 5c                	pop    r12
    3d52:	c3                   	ret    
    3d53:	0f 1f 44 00 00       	nop    DWORD PTR [rax+rax*1+0x0]
    3d58:	e8 93 e4 ff ff       	call   21f0 <strncat@plt>
    3d5d:	48 89 df             	mov    rdi,rbx
    3d60:	e8 3b e4 ff ff       	call   21a0 <strlen@plt>
    3d65:	c6 44 03 ff 00       	mov    BYTE PTR [rbx+rax*1-0x1],0x0
    3d6a:	48 89 d8             	mov    rax,rbx
    3d6d:	5b                   	pop    rbx
    3d6e:	5d                   	pop    rbp
    3d6f:	41 5c                	pop    r12
    3d71:	c3                   	ret    
    3d72:	66 0f 1f 44 00 00    	nop    WORD PTR [rax+rax*1+0x0]
    3d78:	5b                   	pop    rbx
    3d79:	31 c0                	xor    eax,eax
    3d7b:	5d                   	pop    rbp
    3d7c:	41 5c                	pop    r12
    3d7e:	c3                   	ret    
    3d7f:	90                   	nop
    3d80:	41 55                	push   r13
    3d82:	49 89 fd             	mov    r13,rdi
    3d85:	48 89 f7             	mov    rdi,rsi
    3d88:	41 54                	push   r12
    3d8a:	55                   	push   rbp
    3d8b:	48 89 f5             	mov    rbp,rsi
    3d8e:	53                   	push   rbx
    3d8f:	48 81 ec 08 30 00 00 	sub    rsp,0x3008
    3d96:	e8 45 e5 ff ff       	call   22e0 <__xpg_basename@plt>
    3d9b:	4c 8d a4 24 00 20 00 	lea    r12,[rsp+0x2000]
    3da2:	00 
    3da3:	ba 00 10 00 00       	mov    edx,0x1000
    3da8:	48 89 e3             	mov    rbx,rsp
    3dab:	48 89 c6             	mov    rsi,rax
    3dae:	4c 89 e7             	mov    rdi,r12
    3db1:	e8 ca e5 ff ff       	call   2380 <__strcpy_chk@plt>
    3db6:	48 89 ee             	mov    rsi,rbp
    3db9:	48 89 df             	mov    rdi,rbx
    3dbc:	48 8d ac 24 00 10 00 	lea    rbp,[rsp+0x1000]
    3dc3:	00 
    3dc4:	e8 87 fe ff ff       	call   3c50 <__cxa_finalize@plt+0x17a0>
    3dc9:	ba 00 10 00 00       	mov    edx,0x1000
    3dce:	48 89 ee             	mov    rsi,rbp
    3dd1:	48 89 df             	mov    rdi,rbx
    3dd4:	e8 27 e4 ff ff       	call   2200 <__realpath_chk@plt>
    3dd9:	31 d2                	xor    edx,edx
    3ddb:	48 85 c0             	test   rax,rax
    3dde:	74 16                	je     3df6 <__cxa_finalize@plt+0x1946>
    3de0:	4c 89 e2             	mov    rdx,r12
    3de3:	48 89 ee             	mov    rsi,rbp
    3de6:	4c 89 ef             	mov    rdi,r13
    3de9:	e8 f2 fe ff ff       	call   3ce0 <__cxa_finalize@plt+0x1830>
    3dee:	31 d2                	xor    edx,edx
    3df0:	48 85 c0             	test   rax,rax
    3df3:	0f 95 c2             	setne  dl
    3df6:	48 81 c4 08 30 00 00 	add    rsp,0x3008
    3dfd:	89 d0                	mov    eax,edx
    3dff:	5b                   	pop    rbx
    3e00:	5d                   	pop    rbp
    3e01:	41 5c                	pop    r12
    3e03:	41 5d                	pop    r13
    3e05:	c3                   	ret    
    3e06:	66 2e 0f 1f 84 00 00 	nop    WORD PTR cs:[rax+rax*1+0x0]
    3e0d:	00 00 00 
    3e10:	48 83 ec 08          	sub    rsp,0x8
    3e14:	48 89 fe             	mov    rsi,rdi
    3e17:	48 89 d7             	mov    rdi,rdx
    3e1a:	e8 81 e4 ff ff       	call   22a0 <realpath@plt>
    3e1f:	48 85 c0             	test   rax,rax
    3e22:	0f 95 c0             	setne  al
    3e25:	48 83 c4 08          	add    rsp,0x8
    3e29:	0f b6 c0             	movzx  eax,al
    3e2c:	c3                   	ret    
    3e2d:	0f 1f 00             	nop    DWORD PTR [rax]
    3e30:	48 81 ec 98 00 00 00 	sub    rsp,0x98
    3e37:	48 89 fe             	mov    rsi,rdi
    3e3a:	bf 01 00 00 00       	mov    edi,0x1
    3e3f:	48 89 e2             	mov    rdx,rsp
    3e42:	e8 b9 e4 ff ff       	call   2300 <__xstat@plt>
    3e47:	85 c0                	test   eax,eax
    3e49:	0f 94 c0             	sete   al
    3e4c:	48 81 c4 98 00 00 00 	add    rsp,0x98
    3e53:	0f b6 c0             	movzx  eax,al
    3e56:	c3                   	ret    
    3e57:	66 0f 1f 84 00 00 00 	nop    WORD PTR [rax+rax*1+0x0]
    3e5e:	00 00 
    3e60:	41 54                	push   r12
    3e62:	55                   	push   rbp
    3e63:	48 89 f5             	mov    rbp,rsi
    3e66:	53                   	push   rbx
    3e67:	48 89 fb             	mov    rbx,rdi
    3e6a:	48 8d 3d 13 34 00 00 	lea    rdi,[rip+0x3413]        # 7284 <__cxa_finalize@plt+0x4dd4>
    3e71:	48 81 ec 90 00 00 00 	sub    rsp,0x90
    3e78:	e8 63 15 00 00       	call   53e0 <__cxa_finalize@plt+0x2f30>
    3e7d:	48 85 c0             	test   rax,rax
    3e80:	74 58                	je     3eda <__cxa_finalize@plt+0x1a2a>
    3e82:	48 8d 35 12 25 00 00 	lea    rsi,[rip+0x2512]        # 639b <__cxa_finalize@plt+0x3eeb>
    3e89:	48 89 c7             	mov    rdi,rax
    3e8c:	e8 6f e5 ff ff       	call   2400 <strtok@plt>
    3e91:	48 85 c0             	test   rax,rax
    3e94:	74 44                	je     3eda <__cxa_finalize@plt+0x1a2a>
    3e96:	49 89 e4             	mov    r12,rsp
    3e99:	0f 1f 80 00 00 00 00 	nop    DWORD PTR [rax+0x0]
    3ea0:	48 89 ea             	mov    rdx,rbp
    3ea3:	48 89 c6             	mov    rsi,rax
    3ea6:	48 89 df             	mov    rdi,rbx
    3ea9:	e8 32 fe ff ff       	call   3ce0 <__cxa_finalize@plt+0x1830>
    3eae:	48 85 c0             	test   rax,rax
    3eb1:	74 14                	je     3ec7 <__cxa_finalize@plt+0x1a17>
    3eb3:	4c 89 e2             	mov    rdx,r12
    3eb6:	48 89 de             	mov    rsi,rbx
    3eb9:	bf 01 00 00 00       	mov    edi,0x1
    3ebe:	e8 3d e4 ff ff       	call   2300 <__xstat@plt>
    3ec3:	85 c0                	test   eax,eax
    3ec5:	74 29                	je     3ef0 <__cxa_finalize@plt+0x1a40>
    3ec7:	31 ff                	xor    edi,edi
    3ec9:	48 8d 35 cb 24 00 00 	lea    rsi,[rip+0x24cb]        # 639b <__cxa_finalize@plt+0x3eeb>
    3ed0:	e8 2b e5 ff ff       	call   2400 <strtok@plt>
    3ed5:	48 85 c0             	test   rax,rax
    3ed8:	75 c6                	jne    3ea0 <__cxa_finalize@plt+0x19f0>
    3eda:	48 81 c4 90 00 00 00 	add    rsp,0x90
    3ee1:	31 c0                	xor    eax,eax
    3ee3:	5b                   	pop    rbx
    3ee4:	5d                   	pop    rbp
    3ee5:	41 5c                	pop    r12
    3ee7:	c3                   	ret    
    3ee8:	0f 1f 84 00 00 00 00 	nop    DWORD PTR [rax+rax*1+0x0]
    3eef:	00 
    3ef0:	48 81 c4 90 00 00 00 	add    rsp,0x90
    3ef7:	b8 01 00 00 00       	mov    eax,0x1
    3efc:	5b                   	pop    rbx
    3efd:	5d                   	pop    rbp
    3efe:	41 5c                	pop    r12
    3f00:	c3                   	ret    
    3f01:	66 66 2e 0f 1f 84 00 	data16 nop WORD PTR cs:[rax+rax*1+0x0]
    3f08:	00 00 00 00 
    3f0c:	0f 1f 40 00          	nop    DWORD PTR [rax+0x0]
    3f10:	41 54                	push   r12
    3f12:	ba ff 0f 00 00       	mov    edx,0xfff
    3f17:	55                   	push   rbp
    3f18:	48 89 f5             	mov    rbp,rsi
    3f1b:	48 89 fe             	mov    rsi,rdi
    3f1e:	53                   	push   rbx
    3f1f:	48 89 fb             	mov    rbx,rdi
    3f22:	48 8d 3d 74 24 00 00 	lea    rdi,[rip+0x2474]        # 639d <__cxa_finalize@plt+0x3eed>
    3f29:	48 81 ec 00 10 00 00 	sub    rsp,0x1000
    3f30:	e8 fb e1 ff ff       	call   2130 <readlink@plt>
    3f35:	48 83 f8 ff          	cmp    rax,0xffffffffffffffff
    3f39:	74 15                	je     3f50 <__cxa_finalize@plt+0x1aa0>
    3f3b:	c6 04 03 00          	mov    BYTE PTR [rbx+rax*1],0x0
    3f3f:	b8 01 00 00 00       	mov    eax,0x1
    3f44:	48 81 c4 00 10 00 00 	add    rsp,0x1000
    3f4b:	5b                   	pop    rbx
    3f4c:	5d                   	pop    rbp
    3f4d:	41 5c                	pop    r12
    3f4f:	c3                   	ret    
    3f50:	be 2f 00 00 00       	mov    esi,0x2f
    3f55:	48 89 ef             	mov    rdi,rbp
    3f58:	e8 63 e2 ff ff       	call   21c0 <strchr@plt>
    3f5d:	48 85 c0             	test   rax,rax
    3f60:	74 26                	je     3f88 <__cxa_finalize@plt+0x1ad8>
    3f62:	48 89 ee             	mov    rsi,rbp
    3f65:	48 89 df             	mov    rdi,rbx
    3f68:	e8 13 fe ff ff       	call   3d80 <__cxa_finalize@plt+0x18d0>
    3f6d:	85 c0                	test   eax,eax
    3f6f:	0f 95 c0             	setne  al
    3f72:	48 81 c4 00 10 00 00 	add    rsp,0x1000
    3f79:	5b                   	pop    rbx
    3f7a:	0f b6 c0             	movzx  eax,al
    3f7d:	5d                   	pop    rbp
    3f7e:	41 5c                	pop    r12
    3f80:	c3                   	ret    
    3f81:	0f 1f 80 00 00 00 00 	nop    DWORD PTR [rax+0x0]
    3f88:	49 89 e4             	mov    r12,rsp
    3f8b:	48 89 ee             	mov    rsi,rbp
    3f8e:	4c 89 e7             	mov    rdi,r12
    3f91:	e8 ca fe ff ff       	call   3e60 <__cxa_finalize@plt+0x19b0>
    3f96:	85 c0                	test   eax,eax
    3f98:	75 20                	jne    3fba <__cxa_finalize@plt+0x1b0a>
    3f9a:	31 c0                	xor    eax,eax
    3f9c:	48 89 e9             	mov    rcx,rbp
    3f9f:	48 8d 15 3a 2f 00 00 	lea    rdx,[rip+0x2f3a]        # 6ee0 <__cxa_finalize@plt+0x4a30>
    3fa6:	4c 89 e7             	mov    rdi,r12
    3fa9:	be 00 10 00 00       	mov    esi,0x1000
    3fae:	e8 1d e2 ff ff       	call   21d0 <snprintf@plt>
    3fb3:	3d ff 0f 00 00       	cmp    eax,0xfff
    3fb8:	7f 1e                	jg     3fd8 <__cxa_finalize@plt+0x1b28>
    3fba:	4c 89 e6             	mov    rsi,r12
    3fbd:	48 89 df             	mov    rdi,rbx
    3fc0:	e8 bb fd ff ff       	call   3d80 <__cxa_finalize@plt+0x18d0>
    3fc5:	85 c0                	test   eax,eax
    3fc7:	74 0f                	je     3fd8 <__cxa_finalize@plt+0x1b28>
    3fc9:	b8 01 00 00 00       	mov    eax,0x1
    3fce:	e9 71 ff ff ff       	jmp    3f44 <__cxa_finalize@plt+0x1a94>
    3fd3:	0f 1f 44 00 00       	nop    DWORD PTR [rax+rax*1+0x0]
    3fd8:	31 c0                	xor    eax,eax
    3fda:	e9 65 ff ff ff       	jmp    3f44 <__cxa_finalize@plt+0x1a94>
    3fdf:	90                   	nop
    3fe0:	e9 6b fc ff ff       	jmp    3c50 <__cxa_finalize@plt+0x17a0>
    3fe5:	66 66 2e 0f 1f 84 00 	data16 nop WORD PTR cs:[rax+rax*1+0x0]
    3fec:	00 00 00 00 
    3ff0:	48 83 ec 08          	sub    rsp,0x8
    3ff4:	49 89 f1             	mov    r9,rsi
    3ff7:	31 c0                	xor    eax,eax
    3ff9:	48 c7 c1 ff ff ff ff 	mov    rcx,0xffffffffffffffff
    4000:	4c 8d 05 14 22 00 00 	lea    r8,[rip+0x2214]        # 621b <__cxa_finalize@plt+0x3d6b>
    4007:	ba 01 00 00 00       	mov    edx,0x1
    400c:	be 00 10 00 00       	mov    esi,0x1000
    4011:	e8 3a e0 ff ff       	call   2050 <__snprintf_chk@plt>
    4016:	3d ff 0f 00 00       	cmp    eax,0xfff
    401b:	0f 9e c0             	setle  al
    401e:	48 83 c4 08          	add    rsp,0x8
    4022:	0f b6 c0             	movzx  eax,al
    4025:	c3                   	ret    
    4026:	66 2e 0f 1f 84 00 00 	nop    WORD PTR cs:[rax+rax*1+0x0]
    402d:	00 00 00 
    4030:	53                   	push   rbx
    4031:	48 8d 35 74 23 00 00 	lea    rsi,[rip+0x2374]        # 63ac <__cxa_finalize@plt+0x3efc>
    4038:	48 89 fb             	mov    rbx,rdi
    403b:	e8 40 e4 ff ff       	call   2480 <dlsym@plt>
    4040:	48 89 05 f1 63 00 00 	mov    QWORD PTR [rip+0x63f1],rax        # a438 <stderr@@GLIBC_2.2.5+0x198>
    4047:	48 85 c0             	test   rax,rax
    404a:	0f 84 f3 05 00 00    	je     4643 <__cxa_finalize@plt+0x2193>
    4050:	48 8d 35 6e 23 00 00 	lea    rsi,[rip+0x236e]        # 63c5 <__cxa_finalize@plt+0x3f15>
    4057:	48 89 df             	mov    rdi,rbx
    405a:	e8 21 e4 ff ff       	call   2480 <dlsym@plt>
    405f:	48 89 05 ca 63 00 00 	mov    QWORD PTR [rip+0x63ca],rax        # a430 <stderr@@GLIBC_2.2.5+0x190>
    4066:	48 85 c0             	test   rax,rax
    4069:	0f 84 fa 05 00 00    	je     4669 <__cxa_finalize@plt+0x21b9>
    406f:	48 8d 35 6c 23 00 00 	lea    rsi,[rip+0x236c]        # 63e2 <__cxa_finalize@plt+0x3f32>
    4076:	48 89 df             	mov    rdi,rbx
    4079:	e8 02 e4 ff ff       	call   2480 <dlsym@plt>
    407e:	48 89 05 a3 63 00 00 	mov    QWORD PTR [rip+0x63a3],rax        # a428 <stderr@@GLIBC_2.2.5+0x188>
    4085:	48 85 c0             	test   rax,rax
    4088:	0f 84 c8 05 00 00    	je     4656 <__cxa_finalize@plt+0x21a6>
    408e:	48 8d 35 5b 23 00 00 	lea    rsi,[rip+0x235b]        # 63f0 <__cxa_finalize@plt+0x3f40>
    4095:	48 89 df             	mov    rdi,rbx
    4098:	e8 e3 e3 ff ff       	call   2480 <dlsym@plt>
    409d:	48 89 05 7c 63 00 00 	mov    QWORD PTR [rip+0x637c],rax        # a420 <stderr@@GLIBC_2.2.5+0x180>
    40a4:	48 85 c0             	test   rax,rax
    40a7:	0f 84 e2 05 00 00    	je     468f <__cxa_finalize@plt+0x21df>
    40ad:	48 8d 35 55 23 00 00 	lea    rsi,[rip+0x2355]        # 6409 <__cxa_finalize@plt+0x3f59>
    40b4:	48 89 df             	mov    rdi,rbx
    40b7:	e8 c4 e3 ff ff       	call   2480 <dlsym@plt>
    40bc:	48 89 05 55 63 00 00 	mov    QWORD PTR [rip+0x6355],rax        # a418 <stderr@@GLIBC_2.2.5+0x178>
    40c3:	48 85 c0             	test   rax,rax
    40c6:	0f 84 b0 05 00 00    	je     467c <__cxa_finalize@plt+0x21cc>
    40cc:	48 8d 35 44 23 00 00 	lea    rsi,[rip+0x2344]        # 6417 <__cxa_finalize@plt+0x3f67>
    40d3:	48 89 df             	mov    rdi,rbx
    40d6:	e8 a5 e3 ff ff       	call   2480 <dlsym@plt>
    40db:	48 89 05 2e 63 00 00 	mov    QWORD PTR [rip+0x632e],rax        # a410 <stderr@@GLIBC_2.2.5+0x170>
    40e2:	48 85 c0             	test   rax,rax
    40e5:	0f 84 dd 05 00 00    	je     46c8 <__cxa_finalize@plt+0x2218>
    40eb:	48 8d 35 3c 23 00 00 	lea    rsi,[rip+0x233c]        # 642e <__cxa_finalize@plt+0x3f7e>
    40f2:	48 89 df             	mov    rdi,rbx
    40f5:	e8 86 e3 ff ff       	call   2480 <dlsym@plt>
    40fa:	48 89 05 07 63 00 00 	mov    QWORD PTR [rip+0x6307],rax        # a408 <stderr@@GLIBC_2.2.5+0x168>
    4101:	48 85 c0             	test   rax,rax
    4104:	0f 84 ab 05 00 00    	je     46b5 <__cxa_finalize@plt+0x2205>
    410a:	48 8d 35 2d 23 00 00 	lea    rsi,[rip+0x232d]        # 643e <__cxa_finalize@plt+0x3f8e>
    4111:	48 89 df             	mov    rdi,rbx
    4114:	e8 67 e3 ff ff       	call   2480 <dlsym@plt>
    4119:	48 89 05 e0 62 00 00 	mov    QWORD PTR [rip+0x62e0],rax        # a400 <stderr@@GLIBC_2.2.5+0x160>
    4120:	48 85 c0             	test   rax,rax
    4123:	0f 84 79 05 00 00    	je     46a2 <__cxa_finalize@plt+0x21f2>
    4129:	48 8d 35 1d 23 00 00 	lea    rsi,[rip+0x231d]        # 644d <__cxa_finalize@plt+0x3f9d>
    4130:	48 89 df             	mov    rdi,rbx
    4133:	e8 48 e3 ff ff       	call   2480 <dlsym@plt>
    4138:	48 89 05 b9 62 00 00 	mov    QWORD PTR [rip+0x62b9],rax        # a3f8 <stderr@@GLIBC_2.2.5+0x158>
    413f:	48 85 c0             	test   rax,rax
    4142:	0f 84 93 05 00 00    	je     46db <__cxa_finalize@plt+0x222b>
    4148:	48 8d 35 0c 23 00 00 	lea    rsi,[rip+0x230c]        # 645b <__cxa_finalize@plt+0x3fab>
    414f:	48 89 df             	mov    rdi,rbx
    4152:	e8 29 e3 ff ff       	call   2480 <dlsym@plt>
    4157:	48 89 05 92 62 00 00 	mov    QWORD PTR [rip+0x6292],rax        # a3f0 <stderr@@GLIBC_2.2.5+0x150>
    415e:	48 85 c0             	test   rax,rax
    4161:	0f 84 c0 05 00 00    	je     4727 <__cxa_finalize@plt+0x2277>
    4167:	48 8d 35 13 23 00 00 	lea    rsi,[rip+0x2313]        # 6481 <__cxa_finalize@plt+0x3fd1>
    416e:	48 89 df             	mov    rdi,rbx
    4171:	e8 0a e3 ff ff       	call   2480 <dlsym@plt>
    4176:	48 89 05 6b 62 00 00 	mov    QWORD PTR [rip+0x626b],rax        # a3e8 <stderr@@GLIBC_2.2.5+0x148>
    417d:	48 85 c0             	test   rax,rax
    4180:	0f 84 8e 05 00 00    	je     4714 <__cxa_finalize@plt+0x2264>
    4186:	48 8d 35 1e 23 00 00 	lea    rsi,[rip+0x231e]        # 64ab <__cxa_finalize@plt+0x3ffb>
    418d:	48 89 df             	mov    rdi,rbx
    4190:	e8 eb e2 ff ff       	call   2480 <dlsym@plt>
    4195:	48 89 05 44 62 00 00 	mov    QWORD PTR [rip+0x6244],rax        # a3e0 <stderr@@GLIBC_2.2.5+0x140>
    419c:	48 85 c0             	test   rax,rax
    419f:	0f 84 5c 05 00 00    	je     4701 <__cxa_finalize@plt+0x2251>
    41a5:	48 8d 35 25 23 00 00 	lea    rsi,[rip+0x2325]        # 64d1 <__cxa_finalize@plt+0x4021>
    41ac:	48 89 df             	mov    rdi,rbx
    41af:	e8 cc e2 ff ff       	call   2480 <dlsym@plt>
    41b4:	48 89 05 1d 62 00 00 	mov    QWORD PTR [rip+0x621d],rax        # a3d8 <stderr@@GLIBC_2.2.5+0x138>
    41bb:	48 85 c0             	test   rax,rax
    41be:	0f 84 2a 05 00 00    	je     46ee <__cxa_finalize@plt+0x223e>
    41c4:	48 8d 35 14 23 00 00 	lea    rsi,[rip+0x2314]        # 64df <__cxa_finalize@plt+0x402f>
    41cb:	48 89 df             	mov    rdi,rbx
    41ce:	e8 ad e2 ff ff       	call   2480 <dlsym@plt>
    41d3:	48 89 05 f6 61 00 00 	mov    QWORD PTR [rip+0x61f6],rax        # a3d0 <stderr@@GLIBC_2.2.5+0x130>
    41da:	48 85 c0             	test   rax,rax
    41dd:	0f 84 90 05 00 00    	je     4773 <__cxa_finalize@plt+0x22c3>
    41e3:	48 8d 35 1d 23 00 00 	lea    rsi,[rip+0x231d]        # 6507 <__cxa_finalize@plt+0x4057>
    41ea:	48 89 df             	mov    rdi,rbx
    41ed:	e8 8e e2 ff ff       	call   2480 <dlsym@plt>
    41f2:	48 89 05 cf 61 00 00 	mov    QWORD PTR [rip+0x61cf],rax        # a3c8 <stderr@@GLIBC_2.2.5+0x128>
    41f9:	48 85 c0             	test   rax,rax
    41fc:	0f 84 5e 05 00 00    	je     4760 <__cxa_finalize@plt+0x22b0>
    4202:	48 8d 35 26 23 00 00 	lea    rsi,[rip+0x2326]        # 652f <__cxa_finalize@plt+0x407f>
    4209:	48 89 df             	mov    rdi,rbx
    420c:	e8 6f e2 ff ff       	call   2480 <dlsym@plt>
    4211:	48 89 05 a8 61 00 00 	mov    QWORD PTR [rip+0x61a8],rax        # a3c0 <stderr@@GLIBC_2.2.5+0x120>
    4218:	48 85 c0             	test   rax,rax
    421b:	0f 84 2c 05 00 00    	je     474d <__cxa_finalize@plt+0x229d>
    4221:	48 8d 35 19 23 00 00 	lea    rsi,[rip+0x2319]        # 6541 <__cxa_finalize@plt+0x4091>
    4228:	48 89 df             	mov    rdi,rbx
    422b:	e8 50 e2 ff ff       	call   2480 <dlsym@plt>
    4230:	48 89 05 81 61 00 00 	mov    QWORD PTR [rip+0x6181],rax        # a3b8 <stderr@@GLIBC_2.2.5+0x118>
    4237:	48 85 c0             	test   rax,rax
    423a:	0f 84 fa 04 00 00    	je     473a <__cxa_finalize@plt+0x228a>
    4240:	48 8d 35 0b 23 00 00 	lea    rsi,[rip+0x230b]        # 6552 <__cxa_finalize@plt+0x40a2>
    4247:	48 89 df             	mov    rdi,rbx
    424a:	e8 31 e2 ff ff       	call   2480 <dlsym@plt>
    424f:	48 89 05 5a 61 00 00 	mov    QWORD PTR [rip+0x615a],rax        # a3b0 <stderr@@GLIBC_2.2.5+0x110>
    4256:	48 85 c0             	test   rax,rax
    4259:	0f 84 27 05 00 00    	je     4786 <__cxa_finalize@plt+0x22d6>
    425f:	48 8d 35 01 23 00 00 	lea    rsi,[rip+0x2301]        # 6567 <__cxa_finalize@plt+0x40b7>
    4266:	48 89 df             	mov    rdi,rbx
    4269:	e8 12 e2 ff ff       	call   2480 <dlsym@plt>
    426e:	48 89 05 33 61 00 00 	mov    QWORD PTR [rip+0x6133],rax        # a3a8 <stderr@@GLIBC_2.2.5+0x108>
    4275:	48 85 c0             	test   rax,rax
    4278:	0f 84 1b 05 00 00    	je     4799 <__cxa_finalize@plt+0x22e9>
    427e:	48 8d 35 0c 23 00 00 	lea    rsi,[rip+0x230c]        # 6591 <__cxa_finalize@plt+0x40e1>
    4285:	48 89 df             	mov    rdi,rbx
    4288:	e8 f3 e1 ff ff       	call   2480 <dlsym@plt>
    428d:	48 89 05 0c 61 00 00 	mov    QWORD PTR [rip+0x610c],rax        # a3a0 <stderr@@GLIBC_2.2.5+0x100>
    4294:	48 85 c0             	test   rax,rax
    4297:	0f 84 22 05 00 00    	je     47bf <__cxa_finalize@plt+0x230f>
    429d:	48 8d 35 fc 22 00 00 	lea    rsi,[rip+0x22fc]        # 65a0 <__cxa_finalize@plt+0x40f0>
    42a4:	48 89 df             	mov    rdi,rbx
    42a7:	e8 d4 e1 ff ff       	call   2480 <dlsym@plt>
    42ac:	48 89 05 e5 60 00 00 	mov    QWORD PTR [rip+0x60e5],rax        # a398 <stderr@@GLIBC_2.2.5+0xf8>
    42b3:	48 85 c0             	test   rax,rax
    42b6:	0f 84 f0 04 00 00    	je     47ac <__cxa_finalize@plt+0x22fc>
    42bc:	48 8d 35 07 23 00 00 	lea    rsi,[rip+0x2307]        # 65ca <__cxa_finalize@plt+0x411a>
    42c3:	48 89 df             	mov    rdi,rbx
    42c6:	e8 b5 e1 ff ff       	call   2480 <dlsym@plt>
    42cb:	48 89 05 be 60 00 00 	mov    QWORD PTR [rip+0x60be],rax        # a390 <stderr@@GLIBC_2.2.5+0xf0>
    42d2:	48 85 c0             	test   rax,rax
    42d5:	0f 84 1d 05 00 00    	je     47f8 <__cxa_finalize@plt+0x2348>
    42db:	48 8d 35 12 23 00 00 	lea    rsi,[rip+0x2312]        # 65f4 <__cxa_finalize@plt+0x4144>
    42e2:	48 89 df             	mov    rdi,rbx
    42e5:	e8 96 e1 ff ff       	call   2480 <dlsym@plt>
    42ea:	48 89 05 97 60 00 00 	mov    QWORD PTR [rip+0x6097],rax        # a388 <stderr@@GLIBC_2.2.5+0xe8>
    42f1:	48 85 c0             	test   rax,rax
    42f4:	0f 84 eb 04 00 00    	je     47e5 <__cxa_finalize@plt+0x2335>
    42fa:	48 8d 35 01 23 00 00 	lea    rsi,[rip+0x2301]        # 6602 <__cxa_finalize@plt+0x4152>
    4301:	48 89 df             	mov    rdi,rbx
    4304:	e8 77 e1 ff ff       	call   2480 <dlsym@plt>
    4309:	48 89 05 70 60 00 00 	mov    QWORD PTR [rip+0x6070],rax        # a380 <stderr@@GLIBC_2.2.5+0xe0>
    4310:	48 85 c0             	test   rax,rax
    4313:	0f 84 b9 04 00 00    	je     47d2 <__cxa_finalize@plt+0x2322>
    4319:	48 8d 35 f5 22 00 00 	lea    rsi,[rip+0x22f5]        # 6615 <__cxa_finalize@plt+0x4165>
    4320:	48 89 df             	mov    rdi,rbx
    4323:	e8 58 e1 ff ff       	call   2480 <dlsym@plt>
    4328:	48 89 05 49 60 00 00 	mov    QWORD PTR [rip+0x6049],rax        # a378 <stderr@@GLIBC_2.2.5+0xd8>
    432f:	48 85 c0             	test   rax,rax
    4332:	0f 84 d3 04 00 00    	je     480b <__cxa_finalize@plt+0x235b>
    4338:	48 8d 35 ee 22 00 00 	lea    rsi,[rip+0x22ee]        # 662d <__cxa_finalize@plt+0x417d>
    433f:	48 89 df             	mov    rdi,rbx
    4342:	e8 39 e1 ff ff       	call   2480 <dlsym@plt>
    4347:	48 89 05 22 60 00 00 	mov    QWORD PTR [rip+0x6022],rax        # a370 <stderr@@GLIBC_2.2.5+0xd0>
    434e:	48 85 c0             	test   rax,rax
    4351:	0f 84 00 05 00 00    	je     4857 <__cxa_finalize@plt+0x23a7>
    4357:	48 8d 35 e5 22 00 00 	lea    rsi,[rip+0x22e5]        # 6643 <__cxa_finalize@plt+0x4193>
    435e:	48 89 df             	mov    rdi,rbx
    4361:	e8 1a e1 ff ff       	call   2480 <dlsym@plt>
    4366:	48 89 05 fb 5f 00 00 	mov    QWORD PTR [rip+0x5ffb],rax        # a368 <stderr@@GLIBC_2.2.5+0xc8>
    436d:	48 85 c0             	test   rax,rax
    4370:	0f 84 ce 04 00 00    	je     4844 <__cxa_finalize@plt+0x2394>
    4376:	48 8d 35 d4 22 00 00 	lea    rsi,[rip+0x22d4]        # 6651 <__cxa_finalize@plt+0x41a1>
    437d:	48 89 df             	mov    rdi,rbx
    4380:	e8 fb e0 ff ff       	call   2480 <dlsym@plt>
    4385:	48 89 05 d4 5f 00 00 	mov    QWORD PTR [rip+0x5fd4],rax        # a360 <stderr@@GLIBC_2.2.5+0xc0>
    438c:	48 85 c0             	test   rax,rax
    438f:	0f 84 9c 04 00 00    	je     4831 <__cxa_finalize@plt+0x2381>
    4395:	48 8d 35 dd 22 00 00 	lea    rsi,[rip+0x22dd]        # 6679 <__cxa_finalize@plt+0x41c9>
    439c:	48 89 df             	mov    rdi,rbx
    439f:	e8 dc e0 ff ff       	call   2480 <dlsym@plt>
    43a4:	48 89 05 ad 5f 00 00 	mov    QWORD PTR [rip+0x5fad],rax        # a358 <stderr@@GLIBC_2.2.5+0xb8>
    43ab:	48 85 c0             	test   rax,rax
    43ae:	0f 84 6a 04 00 00    	je     481e <__cxa_finalize@plt+0x236e>
    43b4:	48 8d 35 cc 22 00 00 	lea    rsi,[rip+0x22cc]        # 6687 <__cxa_finalize@plt+0x41d7>
    43bb:	48 89 df             	mov    rdi,rbx
    43be:	e8 bd e0 ff ff       	call   2480 <dlsym@plt>
    43c3:	48 89 05 86 5f 00 00 	mov    QWORD PTR [rip+0x5f86],rax        # a350 <stderr@@GLIBC_2.2.5+0xb0>
    43ca:	48 85 c0             	test   rax,rax
    43cd:	0f 84 d0 04 00 00    	je     48a3 <__cxa_finalize@plt+0x23f3>
    43d3:	48 8d 35 be 22 00 00 	lea    rsi,[rip+0x22be]        # 6698 <__cxa_finalize@plt+0x41e8>
    43da:	48 89 df             	mov    rdi,rbx
    43dd:	e8 9e e0 ff ff       	call   2480 <dlsym@plt>
    43e2:	48 89 05 5f 5f 00 00 	mov    QWORD PTR [rip+0x5f5f],rax        # a348 <stderr@@GLIBC_2.2.5+0xa8>
    43e9:	48 85 c0             	test   rax,rax
    43ec:	0f 84 9e 04 00 00    	je     4890 <__cxa_finalize@plt+0x23e0>
    43f2:	48 8d 35 b5 22 00 00 	lea    rsi,[rip+0x22b5]        # 66ae <__cxa_finalize@plt+0x41fe>
    43f9:	48 89 df             	mov    rdi,rbx
    43fc:	e8 7f e0 ff ff       	call   2480 <dlsym@plt>
    4401:	48 89 05 38 5f 00 00 	mov    QWORD PTR [rip+0x5f38],rax        # a340 <stderr@@GLIBC_2.2.5+0xa0>
    4408:	48 85 c0             	test   rax,rax
    440b:	0f 84 6c 04 00 00    	je     487d <__cxa_finalize@plt+0x23cd>
    4411:	48 8d 35 b3 22 00 00 	lea    rsi,[rip+0x22b3]        # 66cb <__cxa_finalize@plt+0x421b>
    4418:	48 89 df             	mov    rdi,rbx
    441b:	e8 60 e0 ff ff       	call   2480 <dlsym@plt>
    4420:	48 89 05 11 5f 00 00 	mov    QWORD PTR [rip+0x5f11],rax        # a338 <stderr@@GLIBC_2.2.5+0x98>
    4427:	48 85 c0             	test   rax,rax
    442a:	0f 84 3a 04 00 00    	je     486a <__cxa_finalize@plt+0x23ba>
    4430:	48 8d 35 ab 22 00 00 	lea    rsi,[rip+0x22ab]        # 66e2 <__cxa_finalize@plt+0x4232>
    4437:	48 89 df             	mov    rdi,rbx
    443a:	e8 41 e0 ff ff       	call   2480 <dlsym@plt>
    443f:	48 89 05 ea 5e 00 00 	mov    QWORD PTR [rip+0x5eea],rax        # a330 <stderr@@GLIBC_2.2.5+0x90>
    4446:	48 85 c0             	test   rax,rax
    4449:	0f 84 7a 04 00 00    	je     48c9 <__cxa_finalize@plt+0x2419>
    444f:	48 8d 35 a3 22 00 00 	lea    rsi,[rip+0x22a3]        # 66f9 <__cxa_finalize@plt+0x4249>
    4456:	48 89 df             	mov    rdi,rbx
    4459:	e8 22 e0 ff ff       	call   2480 <dlsym@plt>
    445e:	48 89 05 c3 5e 00 00 	mov    QWORD PTR [rip+0x5ec3],rax        # a328 <stderr@@GLIBC_2.2.5+0x88>
    4465:	48 85 c0             	test   rax,rax
    4468:	0f 84 48 04 00 00    	je     48b6 <__cxa_finalize@plt+0x2406>
    446e:	48 8d 35 91 22 00 00 	lea    rsi,[rip+0x2291]        # 6706 <__cxa_finalize@plt+0x4256>
    4475:	48 89 df             	mov    rdi,rbx
    4478:	e8 03 e0 ff ff       	call   2480 <dlsym@plt>
    447d:	48 89 05 9c 5e 00 00 	mov    QWORD PTR [rip+0x5e9c],rax        # a320 <stderr@@GLIBC_2.2.5+0x80>
    4484:	48 85 c0             	test   rax,rax
    4487:	0f 84 62 04 00 00    	je     48ef <__cxa_finalize@plt+0x243f>
    448d:	48 8d 35 85 22 00 00 	lea    rsi,[rip+0x2285]        # 6719 <__cxa_finalize@plt+0x4269>
    4494:	48 89 df             	mov    rdi,rbx
    4497:	e8 e4 df ff ff       	call   2480 <dlsym@plt>
    449c:	48 89 05 75 5e 00 00 	mov    QWORD PTR [rip+0x5e75],rax        # a318 <stderr@@GLIBC_2.2.5+0x78>
    44a3:	48 85 c0             	test   rax,rax
    44a6:	0f 84 30 04 00 00    	je     48dc <__cxa_finalize@plt+0x242c>
    44ac:	48 8d 35 7a 22 00 00 	lea    rsi,[rip+0x227a]        # 672d <__cxa_finalize@plt+0x427d>
    44b3:	48 89 df             	mov    rdi,rbx
    44b6:	e8 c5 df ff ff       	call   2480 <dlsym@plt>
    44bb:	48 89 05 4e 5e 00 00 	mov    QWORD PTR [rip+0x5e4e],rax        # a310 <stderr@@GLIBC_2.2.5+0x70>
    44c2:	48 85 c0             	test   rax,rax
    44c5:	0f 84 70 04 00 00    	je     493b <__cxa_finalize@plt+0x248b>
    44cb:	48 8d 35 6b 22 00 00 	lea    rsi,[rip+0x226b]        # 673d <__cxa_finalize@plt+0x428d>
    44d2:	48 89 df             	mov    rdi,rbx
    44d5:	e8 a6 df ff ff       	call   2480 <dlsym@plt>
    44da:	48 89 05 27 5e 00 00 	mov    QWORD PTR [rip+0x5e27],rax        # a308 <stderr@@GLIBC_2.2.5+0x68>
    44e1:	48 85 c0             	test   rax,rax
    44e4:	0f 84 3e 04 00 00    	je     4928 <__cxa_finalize@plt+0x2478>
    44ea:	48 8d 35 5c 22 00 00 	lea    rsi,[rip+0x225c]        # 674d <__cxa_finalize@plt+0x429d>
    44f1:	48 89 df             	mov    rdi,rbx
    44f4:	e8 87 df ff ff       	call   2480 <dlsym@plt>
    44f9:	48 89 05 00 5e 00 00 	mov    QWORD PTR [rip+0x5e00],rax        # a300 <stderr@@GLIBC_2.2.5+0x60>
    4500:	48 85 c0             	test   rax,rax
    4503:	0f 84 0c 04 00 00    	je     4915 <__cxa_finalize@plt+0x2465>
    4509:	48 8d 35 4d 22 00 00 	lea    rsi,[rip+0x224d]        # 675d <__cxa_finalize@plt+0x42ad>
    4510:	48 89 df             	mov    rdi,rbx
    4513:	e8 68 df ff ff       	call   2480 <dlsym@plt>
    4518:	48 89 05 d9 5d 00 00 	mov    QWORD PTR [rip+0x5dd9],rax        # a2f8 <stderr@@GLIBC_2.2.5+0x58>
    451f:	48 85 c0             	test   rax,rax
    4522:	0f 84 da 03 00 00    	je     4902 <__cxa_finalize@plt+0x2452>
    4528:	48 8d 35 3c 22 00 00 	lea    rsi,[rip+0x223c]        # 676b <__cxa_finalize@plt+0x42bb>
    452f:	48 89 df             	mov    rdi,rbx
    4532:	e8 49 df ff ff       	call   2480 <dlsym@plt>
    4537:	48 89 05 7a 5d 00 00 	mov    QWORD PTR [rip+0x5d7a],rax        # a2b8 <stderr@@GLIBC_2.2.5+0x18>
    453e:	48 85 c0             	test   rax,rax
    4541:	0f 84 66 04 00 00    	je     49ad <__cxa_finalize@plt+0x24fd>
    4547:	48 8d 35 d2 27 00 00 	lea    rsi,[rip+0x27d2]        # 6d20 <__cxa_finalize@plt+0x4870>
    454e:	48 89 df             	mov    rdi,rbx
    4551:	e8 2a df ff ff       	call   2480 <dlsym@plt>
    4556:	48 89 05 53 5d 00 00 	mov    QWORD PTR [rip+0x5d53],rax        # a2b0 <stderr@@GLIBC_2.2.5+0x10>
    455d:	48 85 c0             	test   rax,rax
    4560:	0f 84 34 04 00 00    	je     499a <__cxa_finalize@plt+0x24ea>
    4566:	48 8d 35 0e 22 00 00 	lea    rsi,[rip+0x220e]        # 677b <__cxa_finalize@plt+0x42cb>
    456d:	48 89 df             	mov    rdi,rbx
    4570:	e8 0b df ff ff       	call   2480 <dlsym@plt>
    4575:	48 89 05 74 5d 00 00 	mov    QWORD PTR [rip+0x5d74],rax        # a2f0 <stderr@@GLIBC_2.2.5+0x50>
    457c:	48 85 c0             	test   rax,rax
    457f:	0f 84 02 04 00 00    	je     4987 <__cxa_finalize@plt+0x24d7>
    4585:	48 8d 35 04 22 00 00 	lea    rsi,[rip+0x2204]        # 6790 <__cxa_finalize@plt+0x42e0>
    458c:	48 89 df             	mov    rdi,rbx
    458f:	e8 ec de ff ff       	call   2480 <dlsym@plt>
    4594:	48 89 05 4d 5d 00 00 	mov    QWORD PTR [rip+0x5d4d],rax        # a2e8 <stderr@@GLIBC_2.2.5+0x48>
    459b:	48 85 c0             	test   rax,rax
    459e:	0f 84 d0 03 00 00    	je     4974 <__cxa_finalize@plt+0x24c4>
    45a4:	48 8d 35 f5 21 00 00 	lea    rsi,[rip+0x21f5]        # 67a0 <__cxa_finalize@plt+0x42f0>
    45ab:	48 89 df             	mov    rdi,rbx
    45ae:	e8 cd de ff ff       	call   2480 <dlsym@plt>
    45b3:	48 89 05 26 5d 00 00 	mov    QWORD PTR [rip+0x5d26],rax        # a2e0 <stderr@@GLIBC_2.2.5+0x40>
    45ba:	48 85 c0             	test   rax,rax
    45bd:	0f 84 9e 03 00 00    	je     4961 <__cxa_finalize@plt+0x24b1>
    45c3:	48 8d 35 e4 21 00 00 	lea    rsi,[rip+0x21e4]        # 67ae <__cxa_finalize@plt+0x42fe>
    45ca:	48 89 df             	mov    rdi,rbx
    45cd:	e8 ae de ff ff       	call   2480 <dlsym@plt>
    45d2:	48 89 05 ff 5c 00 00 	mov    QWORD PTR [rip+0x5cff],rax        # a2d8 <stderr@@GLIBC_2.2.5+0x38>
    45d9:	48 85 c0             	test   rax,rax
    45dc:	0f 84 6c 03 00 00    	je     494e <__cxa_finalize@plt+0x249e>
    45e2:	48 8d 35 da 21 00 00 	lea    rsi,[rip+0x21da]        # 67c3 <__cxa_finalize@plt+0x4313>
    45e9:	48 89 df             	mov    rdi,rbx
    45ec:	e8 8f de ff ff       	call   2480 <dlsym@plt>
    45f1:	48 89 05 d0 5c 00 00 	mov    QWORD PTR [rip+0x5cd0],rax        # a2c8 <stderr@@GLIBC_2.2.5+0x28>
    45f8:	48 85 c0             	test   rax,rax
    45fb:	0f 84 d2 03 00 00    	je     49d3 <__cxa_finalize@plt+0x2523>
    4601:	48 8d 35 cc 21 00 00 	lea    rsi,[rip+0x21cc]        # 67d4 <__cxa_finalize@plt+0x4324>
    4608:	48 89 df             	mov    rdi,rbx
    460b:	e8 70 de ff ff       	call   2480 <dlsym@plt>
    4610:	48 89 05 b9 5c 00 00 	mov    QWORD PTR [rip+0x5cb9],rax        # a2d0 <stderr@@GLIBC_2.2.5+0x30>
    4617:	48 85 c0             	test   rax,rax
    461a:	0f 84 a0 03 00 00    	je     49c0 <__cxa_finalize@plt+0x2510>
    4620:	48 8d 35 c7 21 00 00 	lea    rsi,[rip+0x21c7]        # 67ee <__cxa_finalize@plt+0x433e>
    4627:	48 89 df             	mov    rdi,rbx
    462a:	e8 51 de ff ff       	call   2480 <dlsym@plt>
    462f:	48 89 05 8a 5c 00 00 	mov    QWORD PTR [rip+0x5c8a],rax        # a2c0 <stderr@@GLIBC_2.2.5+0x20>
    4636:	48 85 c0             	test   rax,rax
    4639:	0f 84 a7 03 00 00    	je     49e6 <__cxa_finalize@plt+0x2536>
    463f:	31 c0                	xor    eax,eax
    4641:	5b                   	pop    rbx
    4642:	c3                   	ret    
    4643:	48 8d 3d b6 21 00 00 	lea    rdi,[rip+0x21b6]        # 6800 <__cxa_finalize@plt+0x4350>
    464a:	e8 f1 e7 ff ff       	call   2e40 <__cxa_finalize@plt+0x990>
    464f:	b8 ff ff ff ff       	mov    eax,0xffffffff
    4654:	5b                   	pop    rbx
    4655:	c3                   	ret    
    4656:	48 8d 3d 03 22 00 00 	lea    rdi,[rip+0x2203]        # 6860 <__cxa_finalize@plt+0x43b0>
    465d:	e8 de e7 ff ff       	call   2e40 <__cxa_finalize@plt+0x990>
    4662:	b8 ff ff ff ff       	mov    eax,0xffffffff
    4667:	5b                   	pop    rbx
    4668:	c3                   	ret    
    4669:	48 8d 3d c0 21 00 00 	lea    rdi,[rip+0x21c0]        # 6830 <__cxa_finalize@plt+0x4380>
    4670:	e8 cb e7 ff ff       	call   2e40 <__cxa_finalize@plt+0x990>
    4675:	b8 ff ff ff ff       	mov    eax,0xffffffff
    467a:	5b                   	pop    rbx
    467b:	c3                   	ret    
    467c:	48 8d 3d 2d 22 00 00 	lea    rdi,[rip+0x222d]        # 68b0 <__cxa_finalize@plt+0x4400>
    4683:	e8 b8 e7 ff ff       	call   2e40 <__cxa_finalize@plt+0x990>
    4688:	b8 ff ff ff ff       	mov    eax,0xffffffff
    468d:	5b                   	pop    rbx
    468e:	c3                   	ret    
    468f:	48 8d 3d ea 21 00 00 	lea    rdi,[rip+0x21ea]        # 6880 <__cxa_finalize@plt+0x43d0>
    4696:	e8 a5 e7 ff ff       	call   2e40 <__cxa_finalize@plt+0x990>
    469b:	b8 ff ff ff ff       	mov    eax,0xffffffff
    46a0:	5b                   	pop    rbx
    46a1:	c3                   	ret    
    46a2:	48 8d 3d 7f 22 00 00 	lea    rdi,[rip+0x227f]        # 6928 <__cxa_finalize@plt+0x4478>
    46a9:	e8 92 e7 ff ff       	call   2e40 <__cxa_finalize@plt+0x990>
    46ae:	b8 ff ff ff ff       	mov    eax,0xffffffff
    46b3:	5b                   	pop    rbx
    46b4:	c3                   	ret    
    46b5:	48 8d 3d 44 22 00 00 	lea    rdi,[rip+0x2244]        # 6900 <__cxa_finalize@plt+0x4450>
    46bc:	e8 7f e7 ff ff       	call   2e40 <__cxa_finalize@plt+0x990>
    46c1:	b8 ff ff ff ff       	mov    eax,0xffffffff
    46c6:	5b                   	pop    rbx
    46c7:	c3                   	ret    
    46c8:	48 8d 3d 01 22 00 00 	lea    rdi,[rip+0x2201]        # 68d0 <__cxa_finalize@plt+0x4420>
    46cf:	e8 6c e7 ff ff       	call   2e40 <__cxa_finalize@plt+0x990>
    46d4:	b8 ff ff ff ff       	mov    eax,0xffffffff
    46d9:	5b                   	pop    rbx
    46da:	c3                   	ret    
    46db:	48 8d 3d 6e 22 00 00 	lea    rdi,[rip+0x226e]        # 6950 <__cxa_finalize@plt+0x44a0>
    46e2:	e8 59 e7 ff ff       	call   2e40 <__cxa_finalize@plt+0x990>
    46e7:	b8 ff ff ff ff       	mov    eax,0xffffffff
    46ec:	5b                   	pop    rbx
    46ed:	c3                   	ret    
    46ee:	48 8d 3d 7b 22 00 00 	lea    rdi,[rip+0x227b]        # 6970 <__cxa_finalize@plt+0x44c0>
    46f5:	e8 46 e7 ff ff       	call   2e40 <__cxa_finalize@plt+0x990>
    46fa:	b8 ff ff ff ff       	mov    eax,0xffffffff
    46ff:	5b                   	pop    rbx
    4700:	c3                   	ret    
    4701:	48 8d 3d ad 1d 00 00 	lea    rdi,[rip+0x1dad]        # 64b5 <__cxa_finalize@plt+0x4005>
    4708:	e8 33 e7 ff ff       	call   2e40 <__cxa_finalize@plt+0x990>
    470d:	b8 ff ff ff ff       	mov    eax,0xffffffff
    4712:	5b                   	pop    rbx
    4713:	c3                   	ret    
    4714:	48 8d 3d 72 1d 00 00 	lea    rdi,[rip+0x1d72]        # 648d <__cxa_finalize@plt+0x3fdd>
    471b:	e8 20 e7 ff ff       	call   2e40 <__cxa_finalize@plt+0x990>
    4720:	b8 ff ff ff ff       	mov    eax,0xffffffff
    4725:	5b                   	pop    rbx
    4726:	c3                   	ret    
    4727:	48 8d 3d 37 1d 00 00 	lea    rdi,[rip+0x1d37]        # 6465 <__cxa_finalize@plt+0x3fb5>
    472e:	e8 0d e7 ff ff       	call   2e40 <__cxa_finalize@plt+0x990>
    4733:	b8 ff ff ff ff       	mov    eax,0xffffffff
    4738:	5b                   	pop    rbx
    4739:	c3                   	ret    
    473a:	48 8d 3d 77 22 00 00 	lea    rdi,[rip+0x2277]        # 69b8 <__cxa_finalize@plt+0x4508>
    4741:	e8 fa e6 ff ff       	call   2e40 <__cxa_finalize@plt+0x990>
    4746:	b8 ff ff ff ff       	mov    eax,0xffffffff
    474b:	5b                   	pop    rbx
    474c:	c3                   	ret    
    474d:	48 8d 3d 3c 22 00 00 	lea    rdi,[rip+0x223c]        # 6990 <__cxa_finalize@plt+0x44e0>
    4754:	e8 e7 e6 ff ff       	call   2e40 <__cxa_finalize@plt+0x990>
    4759:	b8 ff ff ff ff       	mov    eax,0xffffffff
    475e:	5b                   	pop    rbx
    475f:	c3                   	ret    
    4760:	48 8d 3d ab 1d 00 00 	lea    rdi,[rip+0x1dab]        # 6512 <__cxa_finalize@plt+0x4062>
    4767:	e8 d4 e6 ff ff       	call   2e40 <__cxa_finalize@plt+0x990>
    476c:	b8 ff ff ff ff       	mov    eax,0xffffffff
    4771:	5b                   	pop    rbx
    4772:	c3                   	ret    
    4773:	48 8d 3d 70 1d 00 00 	lea    rdi,[rip+0x1d70]        # 64ea <__cxa_finalize@plt+0x403a>
    477a:	e8 c1 e6 ff ff       	call   2e40 <__cxa_finalize@plt+0x990>
    477f:	b8 ff ff ff ff       	mov    eax,0xffffffff
    4784:	5b                   	pop    rbx
    4785:	c3                   	ret    
    4786:	48 8d 3d 53 22 00 00 	lea    rdi,[rip+0x2253]        # 69e0 <__cxa_finalize@plt+0x4530>
    478d:	e8 ae e6 ff ff       	call   2e40 <__cxa_finalize@plt+0x990>
    4792:	b8 ff ff ff ff       	mov    eax,0xffffffff
    4797:	5b                   	pop    rbx
    4798:	c3                   	ret    
    4799:	48 8d 3d d3 1d 00 00 	lea    rdi,[rip+0x1dd3]        # 6573 <__cxa_finalize@plt+0x40c3>
    47a0:	e8 9b e6 ff ff       	call   2e40 <__cxa_finalize@plt+0x990>
    47a5:	b8 ff ff ff ff       	mov    eax,0xffffffff
    47aa:	5b                   	pop    rbx
    47ab:	c3                   	ret    
    47ac:	48 8d 3d f9 1d 00 00 	lea    rdi,[rip+0x1df9]        # 65ac <__cxa_finalize@plt+0x40fc>
    47b3:	e8 88 e6 ff ff       	call   2e40 <__cxa_finalize@plt+0x990>
    47b8:	b8 ff ff ff ff       	mov    eax,0xffffffff
    47bd:	5b                   	pop    rbx
    47be:	c3                   	ret    
    47bf:	48 8d 3d 42 22 00 00 	lea    rdi,[rip+0x2242]        # 6a08 <__cxa_finalize@plt+0x4558>
    47c6:	e8 75 e6 ff ff       	call   2e40 <__cxa_finalize@plt+0x990>
    47cb:	b8 ff ff ff ff       	mov    eax,0xffffffff
    47d0:	5b                   	pop    rbx
    47d1:	c3                   	ret    
    47d2:	48 8d 3d 77 22 00 00 	lea    rdi,[rip+0x2277]        # 6a50 <__cxa_finalize@plt+0x45a0>
    47d9:	e8 62 e6 ff ff       	call   2e40 <__cxa_finalize@plt+0x990>
    47de:	b8 ff ff ff ff       	mov    eax,0xffffffff
    47e3:	5b                   	pop    rbx
    47e4:	c3                   	ret    
    47e5:	48 8d 3d 44 22 00 00 	lea    rdi,[rip+0x2244]        # 6a30 <__cxa_finalize@plt+0x4580>
    47ec:	e8 4f e6 ff ff       	call   2e40 <__cxa_finalize@plt+0x990>
    47f1:	b8 ff ff ff ff       	mov    eax,0xffffffff
    47f6:	5b                   	pop    rbx
    47f7:	c3                   	ret    
    47f8:	48 8d 3d d7 1d 00 00 	lea    rdi,[rip+0x1dd7]        # 65d6 <__cxa_finalize@plt+0x4126>
    47ff:	e8 3c e6 ff ff       	call   2e40 <__cxa_finalize@plt+0x990>
    4804:	b8 ff ff ff ff       	mov    eax,0xffffffff
    4809:	5b                   	pop    rbx
    480a:	c3                   	ret    
    480b:	48 8d 3d 66 22 00 00 	lea    rdi,[rip+0x2266]        # 6a78 <__cxa_finalize@plt+0x45c8>
    4812:	e8 29 e6 ff ff       	call   2e40 <__cxa_finalize@plt+0x990>
    4817:	b8 ff ff ff ff       	mov    eax,0xffffffff
    481c:	5b                   	pop    rbx
    481d:	c3                   	ret    
    481e:	48 8d 3d cb 22 00 00 	lea    rdi,[rip+0x22cb]        # 6af0 <__cxa_finalize@plt+0x4640>
    4825:	e8 16 e6 ff ff       	call   2e40 <__cxa_finalize@plt+0x990>
    482a:	b8 ff ff ff ff       	mov    eax,0xffffffff
    482f:	5b                   	pop    rbx
    4830:	c3                   	ret    
    4831:	48 8d 3d 24 1e 00 00 	lea    rdi,[rip+0x1e24]        # 665c <__cxa_finalize@plt+0x41ac>
    4838:	e8 03 e6 ff ff       	call   2e40 <__cxa_finalize@plt+0x990>
    483d:	b8 ff ff ff ff       	mov    eax,0xffffffff
    4842:	5b                   	pop    rbx
    4843:	c3                   	ret    
    4844:	48 8d 3d 85 22 00 00 	lea    rdi,[rip+0x2285]        # 6ad0 <__cxa_finalize@plt+0x4620>
    484b:	e8 f0 e5 ff ff       	call   2e40 <__cxa_finalize@plt+0x990>
    4850:	b8 ff ff ff ff       	mov    eax,0xffffffff
    4855:	5b                   	pop    rbx
    4856:	c3                   	ret    
    4857:	48 8d 3d 4a 22 00 00 	lea    rdi,[rip+0x224a]        # 6aa8 <__cxa_finalize@plt+0x45f8>
    485e:	e8 dd e5 ff ff       	call   2e40 <__cxa_finalize@plt+0x990>
    4863:	b8 ff ff ff ff       	mov    eax,0xffffffff
    4868:	5b                   	pop    rbx
    4869:	c3                   	ret    
    486a:	48 8d 3d 1f 23 00 00 	lea    rdi,[rip+0x231f]        # 6b90 <__cxa_finalize@plt+0x46e0>
    4871:	e8 ca e5 ff ff       	call   2e40 <__cxa_finalize@plt+0x990>
    4876:	b8 ff ff ff ff       	mov    eax,0xffffffff
    487b:	5b                   	pop    rbx
    487c:	c3                   	ret    
    487d:	48 8d 3d dc 22 00 00 	lea    rdi,[rip+0x22dc]        # 6b60 <__cxa_finalize@plt+0x46b0>
    4884:	e8 b7 e5 ff ff       	call   2e40 <__cxa_finalize@plt+0x990>
    4889:	b8 ff ff ff ff       	mov    eax,0xffffffff
    488e:	5b                   	pop    rbx
    488f:	c3                   	ret    
    4890:	48 8d 3d a1 22 00 00 	lea    rdi,[rip+0x22a1]        # 6b38 <__cxa_finalize@plt+0x4688>
    4897:	e8 a4 e5 ff ff       	call   2e40 <__cxa_finalize@plt+0x990>
    489c:	b8 ff ff ff ff       	mov    eax,0xffffffff
    48a1:	5b                   	pop    rbx
    48a2:	c3                   	ret    
    48a3:	48 8d 3d 66 22 00 00 	lea    rdi,[rip+0x2266]        # 6b10 <__cxa_finalize@plt+0x4660>
    48aa:	e8 91 e5 ff ff       	call   2e40 <__cxa_finalize@plt+0x990>
    48af:	b8 ff ff ff ff       	mov    eax,0xffffffff
    48b4:	5b                   	pop    rbx
    48b5:	c3                   	ret    
    48b6:	48 8d 3d 33 23 00 00 	lea    rdi,[rip+0x2333]        # 6bf0 <__cxa_finalize@plt+0x4740>
    48bd:	e8 7e e5 ff ff       	call   2e40 <__cxa_finalize@plt+0x990>
    48c2:	b8 ff ff ff ff       	mov    eax,0xffffffff
    48c7:	5b                   	pop    rbx
    48c8:	c3                   	ret    
    48c9:	48 8d 3d f0 22 00 00 	lea    rdi,[rip+0x22f0]        # 6bc0 <__cxa_finalize@plt+0x4710>
    48d0:	e8 6b e5 ff ff       	call   2e40 <__cxa_finalize@plt+0x990>
    48d5:	b8 ff ff ff ff       	mov    eax,0xffffffff
    48da:	5b                   	pop    rbx
    48db:	c3                   	ret    
    48dc:	48 8d 3d 55 23 00 00 	lea    rdi,[rip+0x2355]        # 6c38 <__cxa_finalize@plt+0x4788>
    48e3:	e8 58 e5 ff ff       	call   2e40 <__cxa_finalize@plt+0x990>
    48e8:	b8 ff ff ff ff       	mov    eax,0xffffffff
    48ed:	5b                   	pop    rbx
    48ee:	c3                   	ret    
    48ef:	48 8d 3d 1a 23 00 00 	lea    rdi,[rip+0x231a]        # 6c10 <__cxa_finalize@plt+0x4760>
    48f6:	e8 45 e5 ff ff       	call   2e40 <__cxa_finalize@plt+0x990>
    48fb:	b8 ff ff ff ff       	mov    eax,0xffffffff
    4900:	5b                   	pop    rbx
    4901:	c3                   	ret    
    4902:	48 8d 3d cf 23 00 00 	lea    rdi,[rip+0x23cf]        # 6cd8 <__cxa_finalize@plt+0x4828>
    4909:	e8 32 e5 ff ff       	call   2e40 <__cxa_finalize@plt+0x990>
    490e:	b8 ff ff ff ff       	mov    eax,0xffffffff
    4913:	5b                   	pop    rbx
    4914:	c3                   	ret    
    4915:	48 8d 3d 94 23 00 00 	lea    rdi,[rip+0x2394]        # 6cb0 <__cxa_finalize@plt+0x4800>
    491c:	e8 1f e5 ff ff       	call   2e40 <__cxa_finalize@plt+0x990>
    4921:	b8 ff ff ff ff       	mov    eax,0xffffffff
    4926:	5b                   	pop    rbx
    4927:	c3                   	ret    
    4928:	48 8d 3d 59 23 00 00 	lea    rdi,[rip+0x2359]        # 6c88 <__cxa_finalize@plt+0x47d8>
    492f:	e8 0c e5 ff ff       	call   2e40 <__cxa_finalize@plt+0x990>
    4934:	b8 ff ff ff ff       	mov    eax,0xffffffff
    4939:	5b                   	pop    rbx
    493a:	c3                   	ret    
    493b:	48 8d 3d 1e 23 00 00 	lea    rdi,[rip+0x231e]        # 6c60 <__cxa_finalize@plt+0x47b0>
    4942:	e8 f9 e4 ff ff       	call   2e40 <__cxa_finalize@plt+0x990>
    4947:	b8 ff ff ff ff       	mov    eax,0xffffffff
    494c:	5b                   	pop    rbx
    494d:	c3                   	ret    
    494e:	48 8d 3d 93 24 00 00 	lea    rdi,[rip+0x2493]        # 6de8 <__cxa_finalize@plt+0x4938>
    4955:	e8 e6 e4 ff ff       	call   2e40 <__cxa_finalize@plt+0x990>
    495a:	b8 ff ff ff ff       	mov    eax,0xffffffff
    495f:	5b                   	pop    rbx
    4960:	c3                   	ret    
    4961:	48 8d 3d 60 24 00 00 	lea    rdi,[rip+0x2460]        # 6dc8 <__cxa_finalize@plt+0x4918>
    4968:	e8 d3 e4 ff ff       	call   2e40 <__cxa_finalize@plt+0x990>
    496d:	b8 ff ff ff ff       	mov    eax,0xffffffff
    4972:	5b                   	pop    rbx
    4973:	c3                   	ret    
    4974:	48 8d 3d 25 24 00 00 	lea    rdi,[rip+0x2425]        # 6da0 <__cxa_finalize@plt+0x48f0>
    497b:	e8 c0 e4 ff ff       	call   2e40 <__cxa_finalize@plt+0x990>
    4980:	b8 ff ff ff ff       	mov    eax,0xffffffff
    4985:	5b                   	pop    rbx
    4986:	c3                   	ret    
    4987:	48 8d 3d ea 23 00 00 	lea    rdi,[rip+0x23ea]        # 6d78 <__cxa_finalize@plt+0x48c8>
    498e:	e8 ad e4 ff ff       	call   2e40 <__cxa_finalize@plt+0x990>
    4993:	b8 ff ff ff ff       	mov    eax,0xffffffff
    4998:	5b                   	pop    rbx
    4999:	c3                   	ret    
    499a:	48 8d 3d 9f 23 00 00 	lea    rdi,[rip+0x239f]        # 6d40 <__cxa_finalize@plt+0x4890>
    49a1:	e8 9a e4 ff ff       	call   2e40 <__cxa_finalize@plt+0x990>
    49a6:	b8 ff ff ff ff       	mov    eax,0xffffffff
    49ab:	5b                   	pop    rbx
    49ac:	c3                   	ret    
    49ad:	48 8d 3d 44 23 00 00 	lea    rdi,[rip+0x2344]        # 6cf8 <__cxa_finalize@plt+0x4848>
    49b4:	e8 87 e4 ff ff       	call   2e40 <__cxa_finalize@plt+0x990>
    49b9:	b8 ff ff ff ff       	mov    eax,0xffffffff
    49be:	5b                   	pop    rbx
    49bf:	c3                   	ret    
    49c0:	48 8d 3d 71 24 00 00 	lea    rdi,[rip+0x2471]        # 6e38 <__cxa_finalize@plt+0x4988>
    49c7:	e8 74 e4 ff ff       	call   2e40 <__cxa_finalize@plt+0x990>
    49cc:	b8 ff ff ff ff       	mov    eax,0xffffffff
    49d1:	5b                   	pop    rbx
    49d2:	c3                   	ret    
    49d3:	48 8d 3d 36 24 00 00 	lea    rdi,[rip+0x2436]        # 6e10 <__cxa_finalize@plt+0x4960>
    49da:	e8 61 e4 ff ff       	call   2e40 <__cxa_finalize@plt+0x990>
    49df:	b8 ff ff ff ff       	mov    eax,0xffffffff
    49e4:	5b                   	pop    rbx
    49e5:	c3                   	ret    
    49e6:	48 8d 3d 7b 24 00 00 	lea    rdi,[rip+0x247b]        # 6e68 <__cxa_finalize@plt+0x49b8>
    49ed:	e8 4e e4 ff ff       	call   2e40 <__cxa_finalize@plt+0x990>
    49f2:	b8 ff ff ff ff       	mov    eax,0xffffffff
    49f7:	5b                   	pop    rbx
    49f8:	c3                   	ret    
    49f9:	0f 1f 80 00 00 00 00 	nop    DWORD PTR [rax+0x0]
    4a00:	41 57                	push   r15
    4a02:	41 56                	push   r14
    4a04:	41 55                	push   r13
    4a06:	41 54                	push   r12
    4a08:	55                   	push   rbp
    4a09:	53                   	push   rbx
    4a0a:	48 81 ec 28 40 00 00 	sub    rsp,0x4028
    4a11:	48 8b 05 00 5a 00 00 	mov    rax,QWORD PTR [rip+0x5a00]        # a418 <stderr@@GLIBC_2.2.5+0x178>
    4a18:	48 8b 5f 10          	mov    rbx,QWORD PTR [rdi+0x10]
    4a1c:	c7 00 01 00 00 00    	mov    DWORD PTR [rax],0x1
    4a22:	48 8b 05 ff 59 00 00 	mov    rax,QWORD PTR [rip+0x59ff]        # a428 <stderr@@GLIBC_2.2.5+0x188>
    4a29:	c7 00 01 00 00 00    	mov    DWORD PTR [rax],0x1
    4a2f:	48 8b 05 02 5a 00 00 	mov    rax,QWORD PTR [rip+0x5a02]        # a438 <stderr@@GLIBC_2.2.5+0x198>
    4a36:	c7 00 01 00 00 00    	mov    DWORD PTR [rax],0x1
    4a3c:	48 8b 05 cd 59 00 00 	mov    rax,QWORD PTR [rip+0x59cd]        # a410 <stderr@@GLIBC_2.2.5+0x170>
    4a43:	c7 00 01 00 00 00    	mov    DWORD PTR [rax],0x1
    4a49:	48 8b 05 d0 59 00 00 	mov    rax,QWORD PTR [rip+0x59d0]        # a420 <stderr@@GLIBC_2.2.5+0x180>
    4a50:	c7 00 01 00 00 00    	mov    DWORD PTR [rax],0x1
    4a56:	48 8b 05 a3 59 00 00 	mov    rax,QWORD PTR [rip+0x59a3]        # a400 <stderr@@GLIBC_2.2.5+0x160>
    4a5d:	c7 00 00 00 00 00    	mov    DWORD PTR [rax],0x0
    4a63:	48 3b 5f 18          	cmp    rbx,QWORD PTR [rdi+0x18]
    4a67:	0f 83 0a 01 00 00    	jae    4b77 <__cxa_finalize@plt+0x26c7>
    4a6d:	48 89 fd             	mov    rbp,rdi
    4a70:	45 31 ed             	xor    r13d,r13d
    4a73:	4c 8d 74 24 10       	lea    r14,[rsp+0x10]
    4a78:	4c 8d 25 0c 24 00 00 	lea    r12,[rip+0x240c]        # 6e8b <__cxa_finalize@plt+0x49db>
    4a7f:	eb 33                	jmp    4ab4 <__cxa_finalize@plt+0x2604>
    4a81:	0f 1f 80 00 00 00 00 	nop    DWORD PTR [rax+0x0]
    4a88:	3c 76                	cmp    al,0x76
    4a8a:	75 14                	jne    4aa0 <__cxa_finalize@plt+0x25f0>
    4a8c:	48 8b 05 6d 59 00 00 	mov    rax,QWORD PTR [rip+0x596d]        # a400 <stderr@@GLIBC_2.2.5+0x160>
    4a93:	c7 00 01 00 00 00    	mov    DWORD PTR [rax],0x1
    4a99:	0f 1f 80 00 00 00 00 	nop    DWORD PTR [rax+0x0]
    4aa0:	48 89 de             	mov    rsi,rbx
    4aa3:	48 89 ef             	mov    rdi,rbp
    4aa6:	e8 15 dc ff ff       	call   26c0 <__cxa_finalize@plt+0x210>
    4aab:	48 89 c3             	mov    rbx,rax
    4aae:	48 39 45 18          	cmp    QWORD PTR [rbp+0x18],rax
    4ab2:	76 7c                	jbe    4b30 <__cxa_finalize@plt+0x2680>
    4ab4:	80 7b 11 6f          	cmp    BYTE PTR [rbx+0x11],0x6f
    4ab8:	75 e6                	jne    4aa0 <__cxa_finalize@plt+0x25f0>
    4aba:	48 8d 73 12          	lea    rsi,[rbx+0x12]
    4abe:	b9 04 00 00 00       	mov    ecx,0x4
    4ac3:	4c 89 e7             	mov    rdi,r12
    4ac6:	f3 a6                	repz cmps BYTE PTR ds:[rsi],BYTE PTR es:[rdi]
    4ac8:	0f 97 c0             	seta   al
    4acb:	1c 00                	sbb    al,0x0
    4acd:	84 c0                	test   al,al
    4acf:	74 cf                	je     4aa0 <__cxa_finalize@plt+0x25f0>
    4ad1:	0f b6 43 12          	movzx  eax,BYTE PTR [rbx+0x12]
    4ad5:	3c 57                	cmp    al,0x57
    4ad7:	74 2f                	je     4b08 <__cxa_finalize@plt+0x2658>
    4ad9:	7e 15                	jle    4af0 <__cxa_finalize@plt+0x2640>
    4adb:	3c 75                	cmp    al,0x75
    4add:	75 a9                	jne    4a88 <__cxa_finalize@plt+0x25d8>
    4adf:	41 bd 01 00 00 00    	mov    r13d,0x1
    4ae5:	eb b9                	jmp    4aa0 <__cxa_finalize@plt+0x25f0>
    4ae7:	66 0f 1f 84 00 00 00 	nop    WORD PTR [rax+rax*1+0x0]
    4aee:	00 00 
    4af0:	3c 4f                	cmp    al,0x4f
    4af2:	75 ac                	jne    4aa0 <__cxa_finalize@plt+0x25f0>
    4af4:	48 8b 05 0d 59 00 00 	mov    rax,QWORD PTR [rip+0x590d]        # a408 <stderr@@GLIBC_2.2.5+0x168>
    4afb:	c7 00 01 00 00 00    	mov    DWORD PTR [rax],0x1
    4b01:	eb 9d                	jmp    4aa0 <__cxa_finalize@plt+0x25f0>
    4b03:	0f 1f 44 00 00       	nop    DWORD PTR [rax+rax*1+0x0]
    4b08:	4c 8d 7b 14          	lea    r15,[rbx+0x14]
    4b0c:	ba 00 10 00 00       	mov    edx,0x1000
    4b11:	4c 89 f7             	mov    rdi,r14
    4b14:	4c 89 fe             	mov    rsi,r15
    4b17:	e8 04 d6 ff ff       	call   2120 <mbstowcs@plt>
    4b1c:	48 83 f8 ff          	cmp    rax,0xffffffffffffffff
    4b20:	74 69                	je     4b8b <__cxa_finalize@plt+0x26db>
    4b22:	4c 89 f7             	mov    rdi,r14
    4b25:	ff 15 ed 57 00 00    	call   QWORD PTR [rip+0x57ed]        # a318 <stderr@@GLIBC_2.2.5+0x78>
    4b2b:	e9 70 ff ff ff       	jmp    4aa0 <__cxa_finalize@plt+0x25f0>
    4b30:	45 85 ed             	test   r13d,r13d
    4b33:	74 42                	je     4b77 <__cxa_finalize@plt+0x26c7>
    4b35:	48 8b 3d 44 57 00 00 	mov    rdi,QWORD PTR [rip+0x5744]        # a280 <stdout@@GLIBC_2.2.5>
    4b3c:	e8 ff d7 ff ff       	call   2340 <fflush@plt>
    4b41:	48 8b 3d 58 57 00 00 	mov    rdi,QWORD PTR [rip+0x5758]        # a2a0 <stderr@@GLIBC_2.2.5>
    4b48:	e8 f3 d7 ff ff       	call   2340 <fflush@plt>
    4b4d:	48 8b 3d 3c 57 00 00 	mov    rdi,QWORD PTR [rip+0x573c]        # a290 <stdin@@GLIBC_2.2.5>
    4b54:	31 f6                	xor    esi,esi
    4b56:	e8 55 d6 ff ff       	call   21b0 <setbuf@plt>
    4b5b:	48 8b 3d 1e 57 00 00 	mov    rdi,QWORD PTR [rip+0x571e]        # a280 <stdout@@GLIBC_2.2.5>
    4b62:	31 f6                	xor    esi,esi
    4b64:	e8 47 d6 ff ff       	call   21b0 <setbuf@plt>
    4b69:	48 8b 3d 30 57 00 00 	mov    rdi,QWORD PTR [rip+0x5730]        # a2a0 <stderr@@GLIBC_2.2.5>
    4b70:	31 f6                	xor    esi,esi
    4b72:	e8 39 d6 ff ff       	call   21b0 <setbuf@plt>
    4b77:	31 c0                	xor    eax,eax
    4b79:	48 81 c4 28 40 00 00 	add    rsp,0x4028
    4b80:	5b                   	pop    rbx
    4b81:	5d                   	pop    rbp
    4b82:	41 5c                	pop    r12
    4b84:	41 5d                	pop    r13
    4b86:	41 5e                	pop    r14
    4b88:	41 5f                	pop    r15
    4b8a:	c3                   	ret    
    4b8b:	48 89 44 24 08       	mov    QWORD PTR [rsp+0x8],rax
    4b90:	4c 89 fe             	mov    rsi,r15
    4b93:	31 c0                	xor    eax,eax
    4b95:	48 8d 3d 74 23 00 00 	lea    rdi,[rip+0x2374]        # 6f10 <__cxa_finalize@plt+0x4a60>
    4b9c:	e8 9f e2 ff ff       	call   2e40 <__cxa_finalize@plt+0x990>
    4ba1:	48 8b 54 24 08       	mov    rdx,QWORD PTR [rsp+0x8]
    4ba6:	89 d0                	mov    eax,edx
    4ba8:	eb cf                	jmp    4b79 <__cxa_finalize@plt+0x26c9>
    4baa:	66 0f 1f 44 00 00    	nop    WORD PTR [rax+rax*1+0x0]
    4bb0:	41 54                	push   r12
    4bb2:	48 8d 4f 38          	lea    rcx,[rdi+0x38]
    4bb6:	48 8d 15 23 23 00 00 	lea    rdx,[rip+0x2323]        # 6ee0 <__cxa_finalize@plt+0x4a30>
    4bbd:	31 c0                	xor    eax,eax
    4bbf:	55                   	push   rbp
    4bc0:	be 40 00 00 00       	mov    esi,0x40
    4bc5:	53                   	push   rbx
    4bc6:	48 89 fb             	mov    rbx,rdi
    4bc9:	48 81 c3 78 30 00 00 	add    rbx,0x3078
    4bd0:	48 81 ec 40 10 00 00 	sub    rsp,0x1040
    4bd7:	48 89 e5             	mov    rbp,rsp
    4bda:	4c 8d 64 24 40       	lea    r12,[rsp+0x40]
    4bdf:	48 89 ef             	mov    rdi,rbp
    4be2:	e8 e9 d5 ff ff       	call   21d0 <snprintf@plt>
    4be7:	48 89 ea             	mov    rdx,rbp
    4bea:	48 89 de             	mov    rsi,rbx
    4bed:	4c 89 e7             	mov    rdi,r12
    4bf0:	e8 eb f0 ff ff       	call   3ce0 <__cxa_finalize@plt+0x1830>
    4bf5:	48 85 c0             	test   rax,rax
    4bf8:	74 2e                	je     4c28 <__cxa_finalize@plt+0x2778>
    4bfa:	4c 89 e7             	mov    rdi,r12
    4bfd:	e8 9e 0e 00 00       	call   5aa0 <__cxa_finalize@plt+0x35f0>
    4c02:	48 85 c0             	test   rax,rax
    4c05:	74 37                	je     4c3e <__cxa_finalize@plt+0x278e>
    4c07:	8b 35 9f 56 00 00    	mov    esi,DWORD PTR [rip+0x569f]        # a2ac <stderr@@GLIBC_2.2.5+0xc>
    4c0d:	48 89 c7             	mov    rdi,rax
    4c10:	e8 1b f4 ff ff       	call   4030 <__cxa_finalize@plt+0x1b80>
    4c15:	48 81 c4 40 10 00 00 	add    rsp,0x1040
    4c1c:	5b                   	pop    rbx
    4c1d:	5d                   	pop    rbp
    4c1e:	41 5c                	pop    r12
    4c20:	c3                   	ret    
    4c21:	0f 1f 80 00 00 00 00 	nop    DWORD PTR [rax+0x0]
    4c28:	ba 00 10 00 00       	mov    edx,0x1000
    4c2d:	48 89 de             	mov    rsi,rbx
    4c30:	48 8d 3d 21 23 00 00 	lea    rdi,[rip+0x2321]        # 6f58 <__cxa_finalize@plt+0x4aa8>
    4c37:	e8 04 e2 ff ff       	call   2e40 <__cxa_finalize@plt+0x990>
    4c3c:	eb bc                	jmp    4bfa <__cxa_finalize@plt+0x274a>
    4c3e:	e8 5d d8 ff ff       	call   24a0 <dlerror@plt>
    4c43:	4c 89 e6             	mov    rsi,r12
    4c46:	48 8d 3d 43 23 00 00 	lea    rdi,[rip+0x2343]        # 6f90 <__cxa_finalize@plt+0x4ae0>
    4c4d:	48 89 c2             	mov    rdx,rax
    4c50:	31 c0                	xor    eax,eax
    4c52:	e8 e9 e1 ff ff       	call   2e40 <__cxa_finalize@plt+0x990>
    4c57:	b8 ff ff ff ff       	mov    eax,0xffffffff
    4c5c:	eb b7                	jmp    4c15 <__cxa_finalize@plt+0x2765>
    4c5e:	66 90                	xchg   ax,ax
    4c60:	31 c0                	xor    eax,eax
    4c62:	c3                   	ret    
    4c63:	66 66 2e 0f 1f 84 00 	data16 nop WORD PTR cs:[rax+rax*1+0x0]
    4c6a:	00 00 00 00 
    4c6e:	66 90                	xchg   ax,ax
    4c70:	55                   	push   rbp
    4c71:	48 89 fd             	mov    rbp,rdi
    4c74:	53                   	push   rbx
    4c75:	48 83 ec 08          	sub    rsp,0x8
    4c79:	48 8b 3f             	mov    rdi,QWORD PTR [rdi]
    4c7c:	48 85 ff             	test   rdi,rdi
    4c7f:	74 19                	je     4c9a <__cxa_finalize@plt+0x27ea>
    4c81:	48 89 eb             	mov    rbx,rbp
    4c84:	0f 1f 40 00          	nop    DWORD PTR [rax+0x0]
    4c88:	ff 15 52 56 00 00    	call   QWORD PTR [rip+0x5652]        # a2e0 <stderr@@GLIBC_2.2.5+0x40>
    4c8e:	48 83 c3 08          	add    rbx,0x8
    4c92:	48 8b 3b             	mov    rdi,QWORD PTR [rbx]
    4c95:	48 85 ff             	test   rdi,rdi
    4c98:	75 ee                	jne    4c88 <__cxa_finalize@plt+0x27d8>
    4c9a:	48 83 c4 08          	add    rsp,0x8
    4c9e:	48 89 ef             	mov    rdi,rbp
    4ca1:	5b                   	pop    rbx
    4ca2:	5d                   	pop    rbp
    4ca3:	e9 c8 d3 ff ff       	jmp    2070 <free@plt>
    4ca8:	0f 1f 84 00 00 00 00 	nop    DWORD PTR [rax+rax*1+0x0]
    4caf:	00 
    4cb0:	41 57                	push   r15
    4cb2:	41 56                	push   r14
    4cb4:	41 55                	push   r13
    4cb6:	49 89 f5             	mov    r13,rsi
    4cb9:	31 f6                	xor    esi,esi
    4cbb:	41 54                	push   r12
    4cbd:	55                   	push   rbp
    4cbe:	53                   	push   rbx
    4cbf:	89 fb                	mov    ebx,edi
    4cc1:	31 ff                	xor    edi,edi
    4cc3:	48 83 ec 08          	sub    rsp,0x8
    4cc7:	e8 d4 d6 ff ff       	call   23a0 <setlocale@plt>
    4ccc:	48 89 c7             	mov    rdi,rax
    4ccf:	e8 8c d7 ff ff       	call   2460 <strdup@plt>
    4cd4:	48 85 c0             	test   rax,rax
    4cd7:	0f 84 c3 00 00 00    	je     4da0 <__cxa_finalize@plt+0x28f0>
    4cdd:	44 8d 73 01          	lea    r14d,[rbx+0x1]
    4ce1:	be 01 00 00 00       	mov    esi,0x1
    4ce6:	49 89 c7             	mov    r15,rax
    4ce9:	4d 63 f6             	movsxd r14,r14d
    4cec:	49 c1 e6 03          	shl    r14,0x3
    4cf0:	4c 89 f7             	mov    rdi,r14
    4cf3:	e8 38 d5 ff ff       	call   2230 <calloc@plt>
    4cf8:	48 89 c5             	mov    rbp,rax
    4cfb:	48 85 c0             	test   rax,rax
    4cfe:	0f 84 9c 00 00 00    	je     4da0 <__cxa_finalize@plt+0x28f0>
    4d04:	31 ff                	xor    edi,edi
    4d06:	48 8d 35 8c 13 00 00 	lea    rsi,[rip+0x138c]        # 6099 <__cxa_finalize@plt+0x3be9>
    4d0d:	e8 8e d6 ff ff       	call   23a0 <setlocale@plt>
    4d12:	85 db                	test   ebx,ebx
    4d14:	7e 6a                	jle    4d80 <__cxa_finalize@plt+0x28d0>
    4d16:	44 8d 63 ff          	lea    r12d,[rbx-0x1]
    4d1a:	bb 01 00 00 00       	mov    ebx,0x1
    4d1f:	49 83 c4 02          	add    r12,0x2
    4d23:	eb 0c                	jmp    4d31 <__cxa_finalize@plt+0x2881>
    4d25:	0f 1f 00             	nop    DWORD PTR [rax]
    4d28:	48 83 c3 01          	add    rbx,0x1
    4d2c:	4c 39 e3             	cmp    rbx,r12
    4d2f:	74 4f                	je     4d80 <__cxa_finalize@plt+0x28d0>
    4d31:	49 8b 7c dd f8       	mov    rdi,QWORD PTR [r13+rbx*8-0x8]
    4d36:	31 f6                	xor    esi,esi
    4d38:	ff 15 aa 55 00 00    	call   QWORD PTR [rip+0x55aa]        # a2e8 <stderr@@GLIBC_2.2.5+0x48>
    4d3e:	48 89 44 dd f8       	mov    QWORD PTR [rbp+rbx*8-0x8],rax
    4d43:	48 85 c0             	test   rax,rax
    4d46:	75 e0                	jne    4d28 <__cxa_finalize@plt+0x2878>
    4d48:	48 89 ef             	mov    rdi,rbp
    4d4b:	31 ed                	xor    ebp,ebp
    4d4d:	e8 1e ff ff ff       	call   4c70 <__cxa_finalize@plt+0x27c0>
    4d52:	4c 89 ff             	mov    rdi,r15
    4d55:	e8 16 d3 ff ff       	call   2070 <free@plt>
    4d5a:	89 de                	mov    esi,ebx
    4d5c:	48 8d 3d 5d 22 00 00 	lea    rdi,[rip+0x225d]        # 6fc0 <__cxa_finalize@plt+0x4b10>
    4d63:	31 c0                	xor    eax,eax
    4d65:	e8 d6 e0 ff ff       	call   2e40 <__cxa_finalize@plt+0x990>
    4d6a:	48 83 c4 08          	add    rsp,0x8
    4d6e:	48 89 e8             	mov    rax,rbp
    4d71:	5b                   	pop    rbx
    4d72:	5d                   	pop    rbp
    4d73:	41 5c                	pop    r12
    4d75:	41 5d                	pop    r13
    4d77:	41 5e                	pop    r14
    4d79:	41 5f                	pop    r15
    4d7b:	c3                   	ret    
    4d7c:	0f 1f 40 00          	nop    DWORD PTR [rax+0x0]
    4d80:	4a c7 44 35 f8 00 00 	mov    QWORD PTR [rbp+r14*1-0x8],0x0
    4d87:	00 00 
    4d89:	31 ff                	xor    edi,edi
    4d8b:	4c 89 fe             	mov    rsi,r15
    4d8e:	e8 0d d6 ff ff       	call   23a0 <setlocale@plt>
    4d93:	4c 89 ff             	mov    rdi,r15
    4d96:	e8 d5 d2 ff ff       	call   2070 <free@plt>
    4d9b:	eb cd                	jmp    4d6a <__cxa_finalize@plt+0x28ba>
    4d9d:	0f 1f 00             	nop    DWORD PTR [rax]
    4da0:	48 8d 3d e9 20 00 00 	lea    rdi,[rip+0x20e9]        # 6e90 <__cxa_finalize@plt+0x49e0>
    4da7:	31 c0                	xor    eax,eax
    4da9:	31 ed                	xor    ebp,ebp
    4dab:	e8 90 e0 ff ff       	call   2e40 <__cxa_finalize@plt+0x990>
    4db0:	eb b8                	jmp    4d6a <__cxa_finalize@plt+0x28ba>
    4db2:	66 66 2e 0f 1f 84 00 	data16 nop WORD PTR cs:[rax+rax*1+0x0]
    4db9:	00 00 00 00 
    4dbd:	0f 1f 00             	nop    DWORD PTR [rax]
    4dc0:	55                   	push   rbp
    4dc1:	48 89 fd             	mov    rbp,rdi
    4dc4:	31 ff                	xor    edi,edi
    4dc6:	53                   	push   rbx
    4dc7:	48 89 f3             	mov    rbx,rsi
    4dca:	31 f6                	xor    esi,esi
    4dcc:	48 83 ec 18          	sub    rsp,0x18
    4dd0:	48 89 54 24 08       	mov    QWORD PTR [rsp+0x8],rdx
    4dd5:	e8 c6 d5 ff ff       	call   23a0 <setlocale@plt>
    4dda:	48 89 c7             	mov    rdi,rax
    4ddd:	e8 7e d6 ff ff       	call   2460 <strdup@plt>
    4de2:	31 ff                	xor    edi,edi
    4de4:	48 8d 35 ae 12 00 00 	lea    rsi,[rip+0x12ae]        # 6099 <__cxa_finalize@plt+0x3be9>
    4deb:	48 89 05 c6 36 01 00 	mov    QWORD PTR [rip+0x136c6],rax        # 184b8 <stderr@@GLIBC_2.2.5+0xe218>
    4df2:	e8 a9 d5 ff ff       	call   23a0 <setlocale@plt>
    4df7:	48 89 df             	mov    rdi,rbx
    4dfa:	48 8d 74 24 08       	lea    rsi,[rsp+0x8]
    4dff:	ff 15 e3 54 00 00    	call   QWORD PTR [rip+0x54e3]        # a2e8 <stderr@@GLIBC_2.2.5+0x48>
    4e05:	48 8b 35 ac 36 01 00 	mov    rsi,QWORD PTR [rip+0x136ac]        # 184b8 <stderr@@GLIBC_2.2.5+0xe218>
    4e0c:	31 ff                	xor    edi,edi
    4e0e:	48 89 c3             	mov    rbx,rax
    4e11:	e8 8a d5 ff ff       	call   23a0 <setlocale@plt>
    4e16:	48 85 db             	test   rbx,rbx
    4e19:	74 1c                	je     4e37 <__cxa_finalize@plt+0x2987>
    4e1b:	48 8b 54 24 08       	mov    rdx,QWORD PTR [rsp+0x8]
    4e20:	48 89 de             	mov    rsi,rbx
    4e23:	48 89 ef             	mov    rdi,rbp
    4e26:	e8 f5 d3 ff ff       	call   2220 <wcsncpy@plt>
    4e2b:	48 89 df             	mov    rdi,rbx
    4e2e:	48 89 eb             	mov    rbx,rbp
    4e31:	ff 15 a9 54 00 00    	call   QWORD PTR [rip+0x54a9]        # a2e0 <stderr@@GLIBC_2.2.5+0x40>
    4e37:	48 83 c4 18          	add    rsp,0x18
    4e3b:	48 89 d8             	mov    rax,rbx
    4e3e:	5b                   	pop    rbx
    4e3f:	5d                   	pop    rbp
    4e40:	c3                   	ret    
    4e41:	66 66 2e 0f 1f 84 00 	data16 nop WORD PTR cs:[rax+rax*1+0x0]
    4e48:	00 00 00 00 
    4e4c:	0f 1f 40 00          	nop    DWORD PTR [rax+0x0]
    4e50:	55                   	push   rbp
    4e51:	48 8d 77 78          	lea    rsi,[rdi+0x78]
    4e55:	ba 00 10 00 00       	mov    edx,0x1000
    4e5a:	53                   	push   rbx
    4e5b:	48 89 fb             	mov    rbx,rdi
    4e5e:	48 8d 3d 3b f6 00 00 	lea    rdi,[rip+0xf63b]        # 144a0 <stderr@@GLIBC_2.2.5+0xa200>
    4e65:	48 83 ec 08          	sub    rsp,0x8
    4e69:	e8 52 ff ff ff       	call   4dc0 <__cxa_finalize@plt+0x2910>
    4e6e:	48 85 c0             	test   rax,rax
    4e71:	0f 84 61 01 00 00    	je     4fd8 <__cxa_finalize@plt+0x2b28>
    4e77:	48 8d ab 78 30 00 00 	lea    rbp,[rbx+0x3078]
    4e7e:	48 8d 3d 1b f6 00 00 	lea    rdi,[rip+0xf61b]        # 144a0 <stderr@@GLIBC_2.2.5+0xa200>
    4e85:	ff 15 35 55 00 00    	call   QWORD PTR [rip+0x5535]        # a3c0 <stderr@@GLIBC_2.2.5+0x120>
    4e8b:	ba 00 10 00 00       	mov    edx,0x1000
    4e90:	48 89 ee             	mov    rsi,rbp
    4e93:	48 8d 3d e6 b5 00 00 	lea    rdi,[rip+0xb5e6]        # 10480 <stderr@@GLIBC_2.2.5+0x61e0>
    4e9a:	e8 21 ff ff ff       	call   4dc0 <__cxa_finalize@plt+0x2910>
    4e9f:	48 85 c0             	test   rax,rax
    4ea2:	0f 84 43 01 00 00    	je     4feb <__cxa_finalize@plt+0x2b3b>
    4ea8:	48 8d 3d d1 b5 00 00 	lea    rdi,[rip+0xb5d1]        # 10480 <stderr@@GLIBC_2.2.5+0x61e0>
    4eaf:	ff 15 03 55 00 00    	call   QWORD PTR [rip+0x5503]        # a3b8 <stderr@@GLIBC_2.2.5+0x118>
    4eb5:	48 83 ec 08          	sub    rsp,0x8
    4eb9:	49 89 e9             	mov    r9,rbp
    4ebc:	31 c0                	xor    eax,eax
    4ebe:	55                   	push   rbp
    4ebf:	b9 0e 20 00 00       	mov    ecx,0x200e
    4ec4:	ba 01 00 00 00       	mov    edx,0x1
    4ec9:	be 0e 20 00 00       	mov    esi,0x200e
    4ece:	6a 3a                	push   0x3a
    4ed0:	4c 8d 05 c8 1f 00 00 	lea    r8,[rip+0x1fc8]        # 6e9f <__cxa_finalize@plt+0x49ef>
    4ed7:	48 8d 3d 82 95 00 00 	lea    rdi,[rip+0x9582]        # e460 <stderr@@GLIBC_2.2.5+0x41c0>
    4ede:	6a 2f                	push   0x2f
    4ee0:	e8 6b d1 ff ff       	call   2050 <__snprintf_chk@plt>
    4ee5:	48 83 c4 20          	add    rsp,0x20
    4ee9:	3d 0d 20 00 00       	cmp    eax,0x200d
    4eee:	0f 8f b4 00 00 00    	jg     4fa8 <__cxa_finalize@plt+0x2af8>
    4ef4:	ba 00 10 00 00       	mov    edx,0x1000
    4ef9:	48 8d 35 60 95 00 00 	lea    rsi,[rip+0x9560]        # e460 <stderr@@GLIBC_2.2.5+0x41c0>
    4f00:	48 8d 3d 39 55 00 00 	lea    rdi,[rip+0x5539]        # a440 <stderr@@GLIBC_2.2.5+0x1a0>
    4f07:	e8 b4 fe ff ff       	call   4dc0 <__cxa_finalize@plt+0x2910>
    4f0c:	48 85 c0             	test   rax,rax
    4f0f:	0f 84 b0 00 00 00    	je     4fc5 <__cxa_finalize@plt+0x2b15>
    4f15:	48 8d 3d 24 55 00 00 	lea    rdi,[rip+0x5524]        # a440 <stderr@@GLIBC_2.2.5+0x1a0>
    4f1c:	ff 15 ae 54 00 00    	call   QWORD PTR [rip+0x54ae]        # a3d0 <stderr@@GLIBC_2.2.5+0x130>
    4f22:	48 89 df             	mov    rdi,rbx
    4f25:	e8 d6 fa ff ff       	call   4a00 <__cxa_finalize@plt+0x2550>
    4f2a:	ff 15 a8 54 00 00    	call   QWORD PTR [rip+0x54a8]        # a3d8 <stderr@@GLIBC_2.2.5+0x138>
    4f30:	48 8d 3d 09 55 00 00 	lea    rdi,[rip+0x5509]        # a440 <stderr@@GLIBC_2.2.5+0x1a0>
    4f37:	ff 15 bb 53 00 00    	call   QWORD PTR [rip+0x53bb]        # a2f8 <stderr@@GLIBC_2.2.5+0x58>
    4f3d:	48 8b b3 88 40 00 00 	mov    rsi,QWORD PTR [rbx+0x4088]
    4f44:	8b bb 80 40 00 00    	mov    edi,DWORD PTR [rbx+0x4080]
    4f4a:	e8 61 fd ff ff       	call   4cb0 <__cxa_finalize@plt+0x2800>
    4f4f:	48 89 c5             	mov    rbp,rax
    4f52:	48 85 c0             	test   rax,rax
    4f55:	0f 84 a3 00 00 00    	je     4ffe <__cxa_finalize@plt+0x2b4e>
    4f5b:	31 d2                	xor    edx,edx
    4f5d:	8b bb 80 40 00 00    	mov    edi,DWORD PTR [rbx+0x4080]
    4f63:	48 89 c6             	mov    rsi,rax
    4f66:	ff 15 a4 53 00 00    	call   QWORD PTR [rip+0x53a4]        # a310 <stderr@@GLIBC_2.2.5+0x70>
    4f6c:	48 89 ef             	mov    rdi,rbp
    4f6f:	e8 fc fc ff ff       	call   4c70 <__cxa_finalize@plt+0x27c0>
    4f74:	ff 15 26 54 00 00    	call   QWORD PTR [rip+0x5426]        # a3a0 <stderr@@GLIBC_2.2.5+0x100>
    4f7a:	48 85 c0             	test   rax,rax
    4f7d:	75 11                	jne    4f90 <__cxa_finalize@plt+0x2ae0>
    4f7f:	48 83 c4 08          	add    rsp,0x8
    4f83:	5b                   	pop    rbx
    4f84:	5d                   	pop    rbp
    4f85:	c3                   	ret    
    4f86:	66 2e 0f 1f 84 00 00 	nop    WORD PTR cs:[rax+rax*1+0x0]
    4f8d:	00 00 00 
    4f90:	31 c0                	xor    eax,eax
    4f92:	48 8d 3d 3f 21 00 00 	lea    rdi,[rip+0x213f]        # 70d8 <__cxa_finalize@plt+0x4c28>
    4f99:	e8 a2 de ff ff       	call   2e40 <__cxa_finalize@plt+0x990>
    4f9e:	b8 ff ff ff ff       	mov    eax,0xffffffff
    4fa3:	eb da                	jmp    4f7f <__cxa_finalize@plt+0x2acf>
    4fa5:	0f 1f 00             	nop    DWORD PTR [rax]
    4fa8:	31 c0                	xor    eax,eax
    4faa:	ba 0e 20 00 00       	mov    edx,0x200e
    4faf:	48 89 ee             	mov    rsi,rbp
    4fb2:	48 8d 3d 97 20 00 00 	lea    rdi,[rip+0x2097]        # 7050 <__cxa_finalize@plt+0x4ba0>
    4fb9:	e8 82 de ff ff       	call   2e40 <__cxa_finalize@plt+0x990>
    4fbe:	b8 ff ff ff ff       	mov    eax,0xffffffff
    4fc3:	eb ba                	jmp    4f7f <__cxa_finalize@plt+0x2acf>
    4fc5:	48 8d 3d bc 20 00 00 	lea    rdi,[rip+0x20bc]        # 7088 <__cxa_finalize@plt+0x4bd8>
    4fcc:	e8 6f de ff ff       	call   2e40 <__cxa_finalize@plt+0x990>
    4fd1:	b8 ff ff ff ff       	mov    eax,0xffffffff
    4fd6:	eb a7                	jmp    4f7f <__cxa_finalize@plt+0x2acf>
    4fd8:	48 8d 3d 21 20 00 00 	lea    rdi,[rip+0x2021]        # 7000 <__cxa_finalize@plt+0x4b50>
    4fdf:	e8 5c de ff ff       	call   2e40 <__cxa_finalize@plt+0x990>
    4fe4:	b8 ff ff ff ff       	mov    eax,0xffffffff
    4fe9:	eb 94                	jmp    4f7f <__cxa_finalize@plt+0x2acf>
    4feb:	48 8d 3d 36 20 00 00 	lea    rdi,[rip+0x2036]        # 7028 <__cxa_finalize@plt+0x4b78>
    4ff2:	e8 49 de ff ff       	call   2e40 <__cxa_finalize@plt+0x990>
    4ff7:	b8 ff ff ff ff       	mov    eax,0xffffffff
    4ffc:	eb 81                	jmp    4f7f <__cxa_finalize@plt+0x2acf>
    4ffe:	31 c0                	xor    eax,eax
    5000:	48 8d 3d a9 20 00 00 	lea    rdi,[rip+0x20a9]        # 70b0 <__cxa_finalize@plt+0x4c00>
    5007:	e8 34 de ff ff       	call   2e40 <__cxa_finalize@plt+0x990>
    500c:	b8 ff ff ff ff       	mov    eax,0xffffffff
    5011:	e9 69 ff ff ff       	jmp    4f7f <__cxa_finalize@plt+0x2acf>
    5016:	66 2e 0f 1f 84 00 00 	nop    WORD PTR cs:[rax+rax*1+0x0]
    501d:	00 00 00 
    5020:	41 57                	push   r15
    5022:	41 56                	push   r14
    5024:	41 55                	push   r13
    5026:	41 54                	push   r12
    5028:	55                   	push   rbp
    5029:	48 89 fd             	mov    rbp,rdi
    502c:	48 81 c7 78 30 00 00 	add    rdi,0x3078
    5033:	53                   	push   rbx
    5034:	48 83 ec 08          	sub    rsp,0x8
    5038:	ff 15 92 52 00 00    	call   QWORD PTR [rip+0x5292]        # a2d0 <stderr@@GLIBC_2.2.5+0x30>
    503e:	48 85 c0             	test   rax,rax
    5041:	0f 84 42 01 00 00    	je     5189 <__cxa_finalize@plt+0x2cd9>
    5047:	48 89 c6             	mov    rsi,rax
    504a:	48 8d 3d 67 1e 00 00 	lea    rdi,[rip+0x1e67]        # 6eb8 <__cxa_finalize@plt+0x4a08>
    5051:	4c 8d 35 7a 1e 00 00 	lea    r14,[rip+0x1e7a]        # 6ed2 <__cxa_finalize@plt+0x4a22>
    5058:	ff 15 a2 52 00 00    	call   QWORD PTR [rip+0x52a2]        # a300 <stderr@@GLIBC_2.2.5+0x60>
    505e:	48 8d 3d 5c 1e 00 00 	lea    rdi,[rip+0x1e5c]        # 6ec1 <__cxa_finalize@plt+0x4a11>
    5065:	ff 15 05 53 00 00    	call   QWORD PTR [rip+0x5305]        # a370 <stderr@@GLIBC_2.2.5+0xd0>
    506b:	48 89 c7             	mov    rdi,rax
    506e:	ff 15 dc 52 00 00    	call   QWORD PTR [rip+0x52dc]        # a350 <stderr@@GLIBC_2.2.5+0xb0>
    5074:	48 8d 35 4e 1e 00 00 	lea    rsi,[rip+0x1e4e]        # 6ec9 <__cxa_finalize@plt+0x4a19>
    507b:	48 89 c7             	mov    rdi,rax
    507e:	ff 15 2c 53 00 00    	call   QWORD PTR [rip+0x532c]        # a3b0 <stderr@@GLIBC_2.2.5+0x110>
    5084:	48 8b 5d 10          	mov    rbx,QWORD PTR [rbp+0x10]
    5088:	49 89 c5             	mov    r13,rax
    508b:	48 3b 5d 18          	cmp    rbx,QWORD PTR [rbp+0x18]
    508f:	72 27                	jb     50b8 <__cxa_finalize@plt+0x2c08>
    5091:	e9 e2 00 00 00       	jmp    5178 <__cxa_finalize@plt+0x2cc8>
    5096:	66 2e 0f 1f 84 00 00 	nop    WORD PTR cs:[rax+rax*1+0x0]
    509d:	00 00 00 
    50a0:	48 89 de             	mov    rsi,rbx
    50a3:	48 89 ef             	mov    rdi,rbp
    50a6:	e8 15 d6 ff ff       	call   26c0 <__cxa_finalize@plt+0x210>
    50ab:	48 89 c3             	mov    rbx,rax
    50ae:	48 39 45 18          	cmp    QWORD PTR [rbp+0x18],rax
    50b2:	0f 86 c0 00 00 00    	jbe    5178 <__cxa_finalize@plt+0x2cc8>
    50b8:	0f b6 43 11          	movzx  eax,BYTE PTR [rbx+0x11]
    50bc:	83 e0 df             	and    eax,0xffffffdf
    50bf:	3c 4d                	cmp    al,0x4d
    50c1:	75 dd                	jne    50a0 <__cxa_finalize@plt+0x2bf0>
    50c3:	48 89 de             	mov    rsi,rbx
    50c6:	48 89 ef             	mov    rdi,rbp
    50c9:	e8 22 d6 ff ff       	call   26f0 <__cxa_finalize@plt+0x240>
    50ce:	8b 4b 0c             	mov    ecx,DWORD PTR [rbx+0xc]
    50d1:	83 3d d4 51 00 00 24 	cmp    DWORD PTR [rip+0x51d4],0x24        # a2ac <stderr@@GLIBC_2.2.5+0xc>
    50d8:	49 89 c4             	mov    r12,rax
    50db:	0f c9                	bswap  ecx
    50dd:	7e 61                	jle    5140 <__cxa_finalize@plt+0x2c90>
    50df:	48 8d 50 10          	lea    rdx,[rax+0x10]
    50e3:	83 e9 10             	sub    ecx,0x10
    50e6:	48 8d 35 e2 1d 00 00 	lea    rsi,[rip+0x1de2]        # 6ecf <__cxa_finalize@plt+0x4a1f>
    50ed:	31 c0                	xor    eax,eax
    50ef:	4c 89 ef             	mov    rdi,r13
    50f2:	4c 8d 7b 12          	lea    r15,[rbx+0x12]
    50f6:	ff 15 4c 52 00 00    	call   QWORD PTR [rip+0x524c]        # a348 <stderr@@GLIBC_2.2.5+0xa8>
    50fc:	48 85 c0             	test   rax,rax
    50ff:	74 61                	je     5162 <__cxa_finalize@plt+0x2cb2>
    5101:	48 89 c6             	mov    rsi,rax
    5104:	4c 89 ff             	mov    rdi,r15
    5107:	ff 15 6b 52 00 00    	call   QWORD PTR [rip+0x526b]        # a378 <stderr@@GLIBC_2.2.5+0xd8>
    510d:	48 85 c0             	test   rax,rax
    5110:	74 50                	je     5162 <__cxa_finalize@plt+0x2cb2>
    5112:	ff 15 88 52 00 00    	call   QWORD PTR [rip+0x5288]        # a3a0 <stderr@@GLIBC_2.2.5+0x100>
    5118:	48 85 c0             	test   rax,rax
    511b:	74 0c                	je     5129 <__cxa_finalize@plt+0x2c79>
    511d:	ff 15 75 52 00 00    	call   QWORD PTR [rip+0x5275]        # a398 <stderr@@GLIBC_2.2.5+0xf8>
    5123:	ff 15 7f 52 00 00    	call   QWORD PTR [rip+0x527f]        # a3a8 <stderr@@GLIBC_2.2.5+0x108>
    5129:	4c 89 e7             	mov    rdi,r12
    512c:	e8 3f cf ff ff       	call   2070 <free@plt>
    5131:	e9 6a ff ff ff       	jmp    50a0 <__cxa_finalize@plt+0x2bf0>
    5136:	66 2e 0f 1f 84 00 00 	nop    WORD PTR cs:[rax+rax*1+0x0]
    513d:	00 00 00 
    5140:	48 8d 50 0c          	lea    rdx,[rax+0xc]
    5144:	83 e9 0c             	sub    ecx,0xc
    5147:	48 8d 35 81 1d 00 00 	lea    rsi,[rip+0x1d81]        # 6ecf <__cxa_finalize@plt+0x4a1f>
    514e:	31 c0                	xor    eax,eax
    5150:	4c 89 ef             	mov    rdi,r13
    5153:	4c 8d 7b 12          	lea    r15,[rbx+0x12]
    5157:	ff 15 eb 51 00 00    	call   QWORD PTR [rip+0x51eb]        # a348 <stderr@@GLIBC_2.2.5+0xa8>
    515d:	48 85 c0             	test   rax,rax
    5160:	75 9f                	jne    5101 <__cxa_finalize@plt+0x2c51>
    5162:	4c 89 fe             	mov    rsi,r15
    5165:	4c 89 f7             	mov    rdi,r14
    5168:	31 c0                	xor    eax,eax
    516a:	e8 d1 dc ff ff       	call   2e40 <__cxa_finalize@plt+0x990>
    516f:	eb a1                	jmp    5112 <__cxa_finalize@plt+0x2c62>
    5171:	0f 1f 80 00 00 00 00 	nop    DWORD PTR [rax+0x0]
    5178:	31 c0                	xor    eax,eax
    517a:	48 83 c4 08          	add    rsp,0x8
    517e:	5b                   	pop    rbx
    517f:	5d                   	pop    rbp
    5180:	41 5c                	pop    r12
    5182:	41 5d                	pop    r13
    5184:	41 5e                	pop    r14
    5186:	41 5f                	pop    r15
    5188:	c3                   	ret    
    5189:	48 8d 3d 70 1f 00 00 	lea    rdi,[rip+0x1f70]        # 7100 <__cxa_finalize@plt+0x4c50>
    5190:	e8 ab dc ff ff       	call   2e40 <__cxa_finalize@plt+0x990>
    5195:	b8 ff ff ff ff       	mov    eax,0xffffffff
    519a:	eb de                	jmp    517a <__cxa_finalize@plt+0x2cca>
    519c:	0f 1f 40 00          	nop    DWORD PTR [rax+0x0]
    51a0:	55                   	push   rbp
    51a1:	48 83 c7 78          	add    rdi,0x78
    51a5:	53                   	push   rbx
    51a6:	48 83 ec 08          	sub    rsp,0x8
    51aa:	8b 5e 04             	mov    ebx,DWORD PTR [rsi+0x4]
    51ad:	0f cb                	bswap  ebx
    51af:	89 db                	mov    ebx,ebx
    51b1:	48 03 5f 90          	add    rbx,QWORD PTR [rdi-0x70]
    51b5:	ff 15 15 51 00 00    	call   QWORD PTR [rip+0x5115]        # a2d0 <stderr@@GLIBC_2.2.5+0x30>
    51bb:	48 89 da             	mov    rdx,rbx
    51be:	48 8d 3d 1e 1d 00 00 	lea    rdi,[rip+0x1d1e]        # 6ee3 <__cxa_finalize@plt+0x4a33>
    51c5:	48 89 c6             	mov    rsi,rax
    51c8:	48 89 c5             	mov    rbp,rax
    51cb:	31 c0                	xor    eax,eax
    51cd:	ff 15 05 51 00 00    	call   QWORD PTR [rip+0x5105]        # a2d8 <stderr@@GLIBC_2.2.5+0x38>
    51d3:	48 89 ef             	mov    rdi,rbp
    51d6:	48 89 c3             	mov    rbx,rax
    51d9:	ff 15 11 52 00 00    	call   QWORD PTR [rip+0x5211]        # a3f0 <stderr@@GLIBC_2.2.5+0x150>
    51df:	48 8d 3d 04 1d 00 00 	lea    rdi,[rip+0x1d04]        # 6eea <__cxa_finalize@plt+0x4a3a>
    51e6:	ff 15 1c 51 00 00    	call   QWORD PTR [rip+0x511c]        # a308 <stderr@@GLIBC_2.2.5+0x68>
    51ec:	48 85 c0             	test   rax,rax
    51ef:	74 36                	je     5227 <__cxa_finalize@plt+0x2d77>
    51f1:	48 89 de             	mov    rsi,rbx
    51f4:	48 89 c7             	mov    rdi,rax
    51f7:	ff 15 6b 51 00 00    	call   QWORD PTR [rip+0x516b]        # a368 <stderr@@GLIBC_2.2.5+0xc8>
    51fd:	89 c3                	mov    ebx,eax
    51ff:	85 c0                	test   eax,eax
    5201:	75 0d                	jne    5210 <__cxa_finalize@plt+0x2d60>
    5203:	48 83 c4 08          	add    rsp,0x8
    5207:	89 d8                	mov    eax,ebx
    5209:	5b                   	pop    rbx
    520a:	5d                   	pop    rbp
    520b:	c3                   	ret    
    520c:	0f 1f 40 00          	nop    DWORD PTR [rax+0x0]
    5210:	31 c0                	xor    eax,eax
    5212:	48 8d 3d d6 1c 00 00 	lea    rdi,[rip+0x1cd6]        # 6eef <__cxa_finalize@plt+0x4a3f>
    5219:	e8 22 dc ff ff       	call   2e40 <__cxa_finalize@plt+0x990>
    521e:	48 83 c4 08          	add    rsp,0x8
    5222:	89 d8                	mov    eax,ebx
    5224:	5b                   	pop    rbx
    5225:	5d                   	pop    rbp
    5226:	c3                   	ret    
    5227:	48 8d 3d fa 1e 00 00 	lea    rdi,[rip+0x1efa]        # 7128 <__cxa_finalize@plt+0x4c78>
    522e:	e8 0d dc ff ff       	call   2e40 <__cxa_finalize@plt+0x990>
    5233:	48 89 df             	mov    rdi,rbx
    5236:	bb ff ff ff ff       	mov    ebx,0xffffffff
    523b:	ff 15 af 51 00 00    	call   QWORD PTR [rip+0x51af]        # a3f0 <stderr@@GLIBC_2.2.5+0x150>
    5241:	eb c0                	jmp    5203 <__cxa_finalize@plt+0x2d53>
    5243:	66 66 2e 0f 1f 84 00 	data16 nop WORD PTR cs:[rax+rax*1+0x0]
    524a:	00 00 00 00 
    524e:	66 90                	xchg   ax,ax
    5250:	55                   	push   rbp
    5251:	53                   	push   rbx
    5252:	48 83 ec 08          	sub    rsp,0x8
    5256:	48 8b 5f 10          	mov    rbx,QWORD PTR [rdi+0x10]
    525a:	48 3b 5f 18          	cmp    rbx,QWORD PTR [rdi+0x18]
    525e:	73 30                	jae    5290 <__cxa_finalize@plt+0x2de0>
    5260:	48 89 fd             	mov    rbp,rdi
    5263:	eb 17                	jmp    527c <__cxa_finalize@plt+0x2dcc>
    5265:	0f 1f 00             	nop    DWORD PTR [rax]
    5268:	48 89 de             	mov    rsi,rbx
    526b:	48 89 ef             	mov    rdi,rbp
    526e:	e8 4d d4 ff ff       	call   26c0 <__cxa_finalize@plt+0x210>
    5273:	48 89 c3             	mov    rbx,rax
    5276:	48 39 45 18          	cmp    QWORD PTR [rbp+0x18],rax
    527a:	76 14                	jbe    5290 <__cxa_finalize@plt+0x2de0>
    527c:	80 7b 11 7a          	cmp    BYTE PTR [rbx+0x11],0x7a
    5280:	75 e6                	jne    5268 <__cxa_finalize@plt+0x2db8>
    5282:	48 89 de             	mov    rsi,rbx
    5285:	48 89 ef             	mov    rdi,rbp
    5288:	e8 13 ff ff ff       	call   51a0 <__cxa_finalize@plt+0x2cf0>
    528d:	eb d9                	jmp    5268 <__cxa_finalize@plt+0x2db8>
    528f:	90                   	nop
    5290:	48 83 c4 08          	add    rsp,0x8
    5294:	31 c0                	xor    eax,eax
    5296:	5b                   	pop    rbx
    5297:	5d                   	pop    rbp
    5298:	c3                   	ret    
    5299:	0f 1f 80 00 00 00 00 	nop    DWORD PTR [rax+0x0]
    52a0:	83 bf 7c 40 00 00 01 	cmp    DWORD PTR [rdi+0x407c],0x1
    52a7:	74 07                	je     52b0 <__cxa_finalize@plt+0x2e00>
    52a9:	c3                   	ret    
    52aa:	66 0f 1f 44 00 00    	nop    WORD PTR [rax+rax*1+0x0]
    52b0:	48 83 ec 08          	sub    rsp,0x8
    52b4:	48 8d 3d 95 1e 00 00 	lea    rdi,[rip+0x1e95]        # 7150 <__cxa_finalize@plt+0x4ca0>
    52bb:	ff 15 5f 50 00 00    	call   QWORD PTR [rip+0x505f]        # a320 <stderr@@GLIBC_2.2.5+0x80>
    52c1:	48 8d 3d 20 1f 00 00 	lea    rdi,[rip+0x1f20]        # 71e8 <__cxa_finalize@plt+0x4d38>
    52c8:	ff 15 52 50 00 00    	call   QWORD PTR [rip+0x5052]        # a320 <stderr@@GLIBC_2.2.5+0x80>
    52ce:	48 83 c4 08          	add    rsp,0x8
    52d2:	ff 25 10 51 00 00    	jmp    QWORD PTR [rip+0x5110]        # a3e8 <stderr@@GLIBC_2.2.5+0x148>
    52d8:	0f 1f 84 00 00 00 00 	nop    DWORD PTR [rax+rax*1+0x0]
    52df:	00 
    52e0:	c3                   	ret    
    52e1:	66 66 2e 0f 1f 84 00 	data16 nop WORD PTR cs:[rax+rax*1+0x0]
    52e8:	00 00 00 00 
    52ec:	0f 1f 40 00          	nop    DWORD PTR [rax+0x0]
    52f0:	89 fe                	mov    esi,edi
    52f2:	8b 3d b0 31 01 00    	mov    edi,DWORD PTR [rip+0x131b0]        # 184a8 <stderr@@GLIBC_2.2.5+0xe208>
    52f8:	e9 d3 cf ff ff       	jmp    22d0 <kill@plt>
    52fd:	0f 1f 00             	nop    DWORD PTR [rax]
    5300:	41 57                	push   r15
    5302:	41 56                	push   r14
    5304:	49 89 f6             	mov    r14,rsi
    5307:	41 55                	push   r13
    5309:	49 89 d5             	mov    r13,rdx
    530c:	41 54                	push   r12
    530e:	49 89 fc             	mov    r12,rdi
    5311:	55                   	push   rbp
    5312:	53                   	push   rbx
    5313:	48 83 ec 18          	sub    rsp,0x18
    5317:	48 85 ff             	test   rdi,rdi
    531a:	0f 84 a0 00 00 00    	je     53c0 <__cxa_finalize@plt+0x2f10>
    5320:	e8 7b ce ff ff       	call   21a0 <strlen@plt>
    5325:	48 89 44 24 08       	mov    QWORD PTR [rsp+0x8],rax
    532a:	48 8d 58 01          	lea    rbx,[rax+0x1]
    532e:	31 ed                	xor    ebp,ebp
    5330:	4d 85 f6             	test   r14,r14
    5333:	74 0b                	je     5340 <__cxa_finalize@plt+0x2e90>
    5335:	4c 89 f7             	mov    rdi,r14
    5338:	e8 63 ce ff ff       	call   21a0 <strlen@plt>
    533d:	48 89 c5             	mov    rbp,rax
    5340:	45 31 ff             	xor    r15d,r15d
    5343:	4d 85 ed             	test   r13,r13
    5346:	74 0b                	je     5353 <__cxa_finalize@plt+0x2ea3>
    5348:	4c 89 ef             	mov    rdi,r13
    534b:	e8 50 ce ff ff       	call   21a0 <strlen@plt>
    5350:	49 89 c7             	mov    r15,rax
    5353:	48 8d 3c 2b          	lea    rdi,[rbx+rbp*1]
    5357:	4c 01 ff             	add    rdi,r15
    535a:	e8 d1 cf ff ff       	call   2330 <malloc@plt>
    535f:	48 89 c3             	mov    rbx,rax
    5362:	48 85 c0             	test   rax,rax
    5365:	74 10                	je     5377 <__cxa_finalize@plt+0x2ec7>
    5367:	48 83 7c 24 08 00    	cmp    QWORD PTR [rsp+0x8],0x0
    536d:	c6 00 00             	mov    BYTE PTR [rax],0x0
    5370:	75 1e                	jne    5390 <__cxa_finalize@plt+0x2ee0>
    5372:	4d 85 ff             	test   r15,r15
    5375:	75 39                	jne    53b0 <__cxa_finalize@plt+0x2f00>
    5377:	48 83 c4 18          	add    rsp,0x18
    537b:	48 89 d8             	mov    rax,rbx
    537e:	5b                   	pop    rbx
    537f:	5d                   	pop    rbp
    5380:	41 5c                	pop    r12
    5382:	41 5d                	pop    r13
    5384:	41 5e                	pop    r14
    5386:	41 5f                	pop    r15
    5388:	c3                   	ret    
    5389:	0f 1f 80 00 00 00 00 	nop    DWORD PTR [rax+0x0]
    5390:	4c 89 e6             	mov    rsi,r12
    5393:	48 89 c7             	mov    rdi,rax
    5396:	e8 e5 cd ff ff       	call   2180 <stpcpy@plt>
    539b:	48 85 ed             	test   rbp,rbp
    539e:	74 d2                	je     5372 <__cxa_finalize@plt+0x2ec2>
    53a0:	4d 85 ff             	test   r15,r15
    53a3:	74 d2                	je     5377 <__cxa_finalize@plt+0x2ec7>
    53a5:	4c 89 f6             	mov    rsi,r14
    53a8:	48 89 c7             	mov    rdi,rax
    53ab:	e8 20 cd ff ff       	call   20d0 <strcpy@plt>
    53b0:	4c 89 ee             	mov    rsi,r13
    53b3:	48 89 df             	mov    rdi,rbx
    53b6:	e8 75 d0 ff ff       	call   2430 <strcat@plt>
    53bb:	eb ba                	jmp    5377 <__cxa_finalize@plt+0x2ec7>
    53bd:	0f 1f 00             	nop    DWORD PTR [rax]
    53c0:	48 c7 44 24 08 00 00 	mov    QWORD PTR [rsp+0x8],0x0
    53c7:	00 00 
    53c9:	bb 01 00 00 00       	mov    ebx,0x1
    53ce:	e9 5b ff ff ff       	jmp    532e <__cxa_finalize@plt+0x2e7e>
    53d3:	66 66 2e 0f 1f 84 00 	data16 nop WORD PTR cs:[rax+rax*1+0x0]
    53da:	00 00 00 00 
    53de:	66 90                	xchg   ax,ax
    53e0:	48 83 ec 08          	sub    rsp,0x8
    53e4:	e8 57 cc ff ff       	call   2040 <getenv@plt>
    53e9:	48 85 c0             	test   rax,rax
    53ec:	74 12                	je     5400 <__cxa_finalize@plt+0x2f50>
    53ee:	80 38 00             	cmp    BYTE PTR [rax],0x0
    53f1:	74 0d                	je     5400 <__cxa_finalize@plt+0x2f50>
    53f3:	48 89 c7             	mov    rdi,rax
    53f6:	48 83 c4 08          	add    rsp,0x8
    53fa:	e9 61 d0 ff ff       	jmp    2460 <strdup@plt>
    53ff:	90                   	nop
    5400:	31 c0                	xor    eax,eax
    5402:	48 83 c4 08          	add    rsp,0x8
    5406:	c3                   	ret    
    5407:	66 0f 1f 84 00 00 00 	nop    WORD PTR [rax+rax*1+0x0]
    540e:	00 00 
    5410:	55                   	push   rbp
    5411:	48 89 fd             	mov    rbp,rdi
    5414:	48 8d 3d 5e 1e 00 00 	lea    rdi,[rip+0x1e5e]        # 7279 <__cxa_finalize@plt+0x4dc9>
    541b:	53                   	push   rbx
    541c:	48 83 ec 08          	sub    rsp,0x8
    5420:	e8 bb ff ff ff       	call   53e0 <__cxa_finalize@plt+0x2f30>
    5425:	48 89 c3             	mov    rbx,rax
    5428:	48 85 c0             	test   rax,rax
    542b:	74 14                	je     5441 <__cxa_finalize@plt+0x2f91>
    542d:	ba 01 00 00 00       	mov    edx,0x1
    5432:	48 89 c6             	mov    rsi,rax
    5435:	48 8d 3d 4d 1e 00 00 	lea    rdi,[rip+0x1e4d]        # 7289 <__cxa_finalize@plt+0x4dd9>
    543c:	e8 ff cc ff ff       	call   2140 <setenv@plt>
    5441:	48 89 da             	mov    rdx,rbx
    5444:	48 89 ef             	mov    rdi,rbp
    5447:	48 8d 35 4d 0f 00 00 	lea    rsi,[rip+0xf4d]        # 639b <__cxa_finalize@plt+0x3eeb>
    544e:	e8 ad fe ff ff       	call   5300 <__cxa_finalize@plt+0x2e50>
    5453:	ba 01 00 00 00       	mov    edx,0x1
    5458:	48 8d 3d 1a 1e 00 00 	lea    rdi,[rip+0x1e1a]        # 7279 <__cxa_finalize@plt+0x4dc9>
    545f:	48 89 c3             	mov    rbx,rax
    5462:	48 89 c6             	mov    rsi,rax
    5465:	e8 d6 cc ff ff       	call   2140 <setenv@plt>
    546a:	48 89 df             	mov    rdi,rbx
    546d:	89 c5                	mov    ebp,eax
    546f:	e8 fc cb ff ff       	call   2070 <free@plt>
    5474:	48 83 c4 08          	add    rsp,0x8
    5478:	89 e8                	mov    eax,ebp
    547a:	5b                   	pop    rbx
    547b:	5d                   	pop    rbp
    547c:	c3                   	ret    
    547d:	0f 1f 00             	nop    DWORD PTR [rax]
    5480:	ba 01 00 00 00       	mov    edx,0x1
    5485:	e9 b6 cc ff ff       	jmp    2140 <setenv@plt>
    548a:	66 0f 1f 44 00 00    	nop    WORD PTR [rax+rax*1+0x0]
    5490:	e9 7b cf ff ff       	jmp    2410 <unsetenv@plt>
    5495:	66 66 2e 0f 1f 84 00 	data16 nop WORD PTR cs:[rax+rax*1+0x0]
    549c:	00 00 00 00 
    54a0:	53                   	push   rbx
    54a1:	48 89 fb             	mov    rbx,rdi
    54a4:	e8 f7 cc ff ff       	call   21a0 <strlen@plt>
    54a9:	80 7c 03 ff 2f       	cmp    BYTE PTR [rbx+rax*1-0x1],0x2f
    54ae:	48 8d 14 03          	lea    rdx,[rbx+rax*1]
    54b2:	74 0d                	je     54c1 <__cxa_finalize@plt+0x3011>
    54b4:	b9 2f 00 00 00       	mov    ecx,0x2f
    54b9:	66 89 0a             	mov    WORD PTR [rdx],cx
    54bc:	48 8d 54 03 01       	lea    rdx,[rbx+rax*1+0x1]
    54c1:	48 b8 5f 4d 45 49 58 	movabs rax,0x5858585849454d5f
    54c8:	58 58 58 
    54cb:	c6 42 0a 00          	mov    BYTE PTR [rdx+0xa],0x0
    54cf:	48 89 df             	mov    rdi,rbx
    54d2:	48 89 02             	mov    QWORD PTR [rdx],rax
    54d5:	b8 58 58 00 00       	mov    eax,0x5858
    54da:	66 89 42 08          	mov    WORD PTR [rdx+0x8],ax
    54de:	e8 ad ce ff ff       	call   2390 <mkdtemp@plt>
    54e3:	5b                   	pop    rbx
    54e4:	48 85 c0             	test   rax,rax
    54e7:	0f 95 c0             	setne  al
    54ea:	0f b6 c0             	movzx  eax,al
    54ed:	c3                   	ret    
    54ee:	66 90                	xchg   ax,ax
    54f0:	31 c0                	xor    eax,eax
    54f2:	83 bf 78 40 00 00 01 	cmp    DWORD PTR [rdi+0x4078],0x1
    54f9:	75 05                	jne    5500 <__cxa_finalize@plt+0x3050>
    54fb:	c3                   	ret    
    54fc:	0f 1f 40 00          	nop    DWORD PTR [rax+0x0]
    5500:	41 54                	push   r12
    5502:	48 8d 35 9c 1d 00 00 	lea    rsi,[rip+0x1d9c]        # 72a5 <__cxa_finalize@plt+0x4df5>
    5509:	55                   	push   rbp
    550a:	48 89 fd             	mov    rbp,rdi
    550d:	53                   	push   rbx
    550e:	48 8d 9d 78 20 00 00 	lea    rbx,[rbp+0x2078]
    5515:	e8 a6 d7 ff ff       	call   2cc0 <__cxa_finalize@plt+0x810>
    551a:	48 85 c0             	test   rax,rax
    551d:	74 41                	je     5560 <__cxa_finalize@plt+0x30b0>
    551f:	48 89 df             	mov    rdi,rbx
    5522:	ba 00 10 00 00       	mov    edx,0x1000
    5527:	48 89 c6             	mov    rsi,rax
    552a:	e8 51 ce ff ff       	call   2380 <__strcpy_chk@plt>
    552f:	48 89 df             	mov    rdi,rbx
    5532:	e8 69 ff ff ff       	call   54a0 <__cxa_finalize@plt+0x2ff0>
    5537:	85 c0                	test   eax,eax
    5539:	0f 85 a3 00 00 00    	jne    55e2 <__cxa_finalize@plt+0x3132>
    553f:	31 c0                	xor    eax,eax
    5541:	48 8d 3d c0 1d 00 00 	lea    rdi,[rip+0x1dc0]        # 7308 <__cxa_finalize@plt+0x4e58>
    5548:	e8 f3 d8 ff ff       	call   2e40 <__cxa_finalize@plt+0x990>
    554d:	5b                   	pop    rbx
    554e:	b8 ff ff ff ff       	mov    eax,0xffffffff
    5553:	5d                   	pop    rbp
    5554:	41 5c                	pop    r12
    5556:	c3                   	ret    
    5557:	66 0f 1f 84 00 00 00 	nop    WORD PTR [rax+rax*1+0x0]
    555e:	00 00 
    5560:	4c 8d 25 39 48 00 00 	lea    r12,[rip+0x4839]        # 9da0 <__cxa_finalize@plt+0x78f0>
    5567:	48 8d 3d 30 1d 00 00 	lea    rdi,[rip+0x1d30]        # 729e <__cxa_finalize@plt+0x4dee>
    556e:	66 90                	xchg   ax,ax
    5570:	e8 6b fe ff ff       	call   53e0 <__cxa_finalize@plt+0x2f30>
    5575:	48 85 c0             	test   rax,rax
    5578:	74 1c                	je     5596 <__cxa_finalize@plt+0x30e6>
    557a:	48 89 df             	mov    rdi,rbx
    557d:	ba 00 10 00 00       	mov    edx,0x1000
    5582:	48 89 c6             	mov    rsi,rax
    5585:	e8 f6 cd ff ff       	call   2380 <__strcpy_chk@plt>
    558a:	48 89 df             	mov    rdi,rbx
    558d:	e8 0e ff ff ff       	call   54a0 <__cxa_finalize@plt+0x2ff0>
    5592:	85 c0                	test   eax,eax
    5594:	75 4c                	jne    55e2 <__cxa_finalize@plt+0x3132>
    5596:	49 83 c4 08          	add    r12,0x8
    559a:	49 8b 3c 24          	mov    rdi,QWORD PTR [r12]
    559e:	48 85 ff             	test   rdi,rdi
    55a1:	75 cd                	jne    5570 <__cxa_finalize@plt+0x30c0>
    55a3:	4c 8d 25 d6 47 00 00 	lea    r12,[rip+0x47d6]        # 9d80 <__cxa_finalize@plt+0x78d0>
    55aa:	48 8d 35 3b 1d 00 00 	lea    rsi,[rip+0x1d3b]        # 72ec <__cxa_finalize@plt+0x4e3c>
    55b1:	eb 16                	jmp    55c9 <__cxa_finalize@plt+0x3119>
    55b3:	0f 1f 44 00 00       	nop    DWORD PTR [rax+rax*1+0x0]
    55b8:	49 83 c4 08          	add    r12,0x8
    55bc:	49 8b 34 24          	mov    rsi,QWORD PTR [r12]
    55c0:	48 85 f6             	test   rsi,rsi
    55c3:	0f 84 76 ff ff ff    	je     553f <__cxa_finalize@plt+0x308f>
    55c9:	48 89 df             	mov    rdi,rbx
    55cc:	ba 00 10 00 00       	mov    edx,0x1000
    55d1:	e8 aa cd ff ff       	call   2380 <__strcpy_chk@plt>
    55d6:	48 89 df             	mov    rdi,rbx
    55d9:	e8 c2 fe ff ff       	call   54a0 <__cxa_finalize@plt+0x2ff0>
    55de:	85 c0                	test   eax,eax
    55e0:	74 d6                	je     55b8 <__cxa_finalize@plt+0x3108>
    55e2:	c7 85 78 40 00 00 01 	mov    DWORD PTR [rbp+0x4078],0x1
    55e9:	00 00 00 
    55ec:	31 c0                	xor    eax,eax
    55ee:	5b                   	pop    rbx
    55ef:	5d                   	pop    rbp
    55f0:	41 5c                	pop    r12
    55f2:	c3                   	ret    
    55f3:	66 66 2e 0f 1f 84 00 	data16 nop WORD PTR cs:[rax+rax*1+0x0]
    55fa:	00 00 00 00 
    55fe:	66 90                	xchg   ax,ax
    5600:	41 57                	push   r15
    5602:	ba 00 10 00 00       	mov    edx,0x1000
    5607:	48 89 fe             	mov    rsi,rdi
    560a:	49 89 ff             	mov    r15,rdi
    560d:	41 56                	push   r14
    560f:	41 55                	push   r13
    5611:	41 54                	push   r12
    5613:	55                   	push   rbp
    5614:	53                   	push   rbx
    5615:	48 81 ec b8 10 00 00 	sub    rsp,0x10b8
    561c:	48 8d 9c 24 a0 00 00 	lea    rbx,[rsp+0xa0]
    5623:	00 
    5624:	48 89 df             	mov    rdi,rbx
    5627:	e8 84 ca ff ff       	call   20b0 <strncpy@plt>
    562c:	48 89 da             	mov    rdx,rbx
    562f:	8b 0a                	mov    ecx,DWORD PTR [rdx]
    5631:	48 83 c2 04          	add    rdx,0x4
    5635:	8d 81 ff fe fe fe    	lea    eax,[rcx-0x1010101]
    563b:	f7 d1                	not    ecx
    563d:	21 c8                	and    eax,ecx
    563f:	25 80 80 80 80       	and    eax,0x80808080
    5644:	74 e9                	je     562f <__cxa_finalize@plt+0x317f>
    5646:	89 c1                	mov    ecx,eax
    5648:	c1 e9 10             	shr    ecx,0x10
    564b:	a9 80 80 00 00       	test   eax,0x8080
    5650:	0f 44 c1             	cmove  eax,ecx
    5653:	48 8d 4a 02          	lea    rcx,[rdx+0x2]
    5657:	48 0f 44 d1          	cmove  rdx,rcx
    565b:	89 c6                	mov    esi,eax
    565d:	40 00 c6             	add    sil,al
    5660:	48 83 da 03          	sbb    rdx,0x3
    5664:	48 29 da             	sub    rdx,rbx
    5667:	8d 42 ff             	lea    eax,[rdx-0x1]
    566a:	41 89 d5             	mov    r13d,edx
    566d:	48 98                	cdqe   
    566f:	80 bc 04 a0 00 00 00 	cmp    BYTE PTR [rsp+rax*1+0xa0],0x2f
    5676:	2f 
    5677:	74 0d                	je     5686 <__cxa_finalize@plt+0x31d6>
    5679:	b8 2f 00 00 00       	mov    eax,0x2f
    567e:	44 8d 6a 01          	lea    r13d,[rdx+0x1]
    5682:	66 89 04 13          	mov    WORD PTR [rbx+rdx*1],ax
    5686:	4c 89 ff             	mov    rdi,r15
    5689:	e8 e2 ca ff ff       	call   2170 <opendir@plt>
    568e:	48 89 c5             	mov    rbp,rax
    5691:	48 85 c0             	test   rax,rax
    5694:	0f 84 d7 00 00 00    	je     5771 <__cxa_finalize@plt+0x32c1>
    569a:	48 89 c7             	mov    rdi,rax
    569d:	e8 6e cc ff ff       	call   2310 <readdir@plt>
    56a2:	48 85 c0             	test   rax,rax
    56a5:	0f 84 b6 00 00 00    	je     5761 <__cxa_finalize@plt+0x32b1>
    56ab:	48 8d 74 24 10       	lea    rsi,[rsp+0x10]
    56b0:	4c 8d 25 25 0a 00 00 	lea    r12,[rip+0xa25]        # 60dc <__cxa_finalize@plt+0x3c2c>
    56b7:	4d 63 ed             	movsxd r13,r13d
    56ba:	48 89 74 24 08       	mov    QWORD PTR [rsp+0x8],rsi
    56bf:	4c 8d 35 3f 0b 00 00 	lea    r14,[rip+0xb3f]        # 6205 <__cxa_finalize@plt+0x3d55>
    56c6:	66 2e 0f 1f 84 00 00 	nop    WORD PTR cs:[rax+rax*1+0x0]
    56cd:	00 00 00 
    56d0:	48 83 c0 13          	add    rax,0x13
    56d4:	b9 02 00 00 00       	mov    ecx,0x2
    56d9:	4c 89 e7             	mov    rdi,r12
    56dc:	48 89 c6             	mov    rsi,rax
    56df:	f3 a6                	repz cmps BYTE PTR ds:[rsi],BYTE PTR es:[rdi]
    56e1:	0f 97 c2             	seta   dl
    56e4:	80 da 00             	sbb    dl,0x0
    56e7:	84 d2                	test   dl,dl
    56e9:	74 65                	je     5750 <__cxa_finalize@plt+0x32a0>
    56eb:	b9 03 00 00 00       	mov    ecx,0x3
    56f0:	48 89 c6             	mov    rsi,rax
    56f3:	4c 89 f7             	mov    rdi,r14
    56f6:	f3 a6                	repz cmps BYTE PTR ds:[rsi],BYTE PTR es:[rdi]
    56f8:	0f 97 c2             	seta   dl
    56fb:	80 da 00             	sbb    dl,0x0
    56fe:	84 d2                	test   dl,dl
    5700:	74 4e                	je     5750 <__cxa_finalize@plt+0x32a0>
    5702:	ba 01 10 00 00       	mov    edx,0x1001
    5707:	48 89 c6             	mov    rsi,rax
    570a:	48 89 df             	mov    rdi,rbx
    570d:	42 c6 84 2c a0 00 00 	mov    BYTE PTR [rsp+r13*1+0xa0],0x0
    5714:	00 00 
    5716:	e8 15 c9 ff ff       	call   2030 <__strcat_chk@plt>
    571b:	48 8b 54 24 08       	mov    rdx,QWORD PTR [rsp+0x8]
    5720:	48 89 de             	mov    rsi,rbx
    5723:	bf 01 00 00 00       	mov    edi,0x1
    5728:	e8 d3 cb ff ff       	call   2300 <__xstat@plt>
    572d:	85 c0                	test   eax,eax
    572f:	75 1f                	jne    5750 <__cxa_finalize@plt+0x32a0>
    5731:	8b 44 24 28          	mov    eax,DWORD PTR [rsp+0x28]
    5735:	48 89 df             	mov    rdi,rbx
    5738:	25 00 f0 00 00       	and    eax,0xf000
    573d:	3d 00 40 00 00       	cmp    eax,0x4000
    5742:	74 44                	je     5788 <__cxa_finalize@plt+0x32d8>
    5744:	e8 57 c9 ff ff       	call   20a0 <unlink@plt>
    5749:	0f 1f 80 00 00 00 00 	nop    DWORD PTR [rax+0x0]
    5750:	48 89 ef             	mov    rdi,rbp
    5753:	e8 b8 cb ff ff       	call   2310 <readdir@plt>
    5758:	48 85 c0             	test   rax,rax
    575b:	0f 85 6f ff ff ff    	jne    56d0 <__cxa_finalize@plt+0x3220>
    5761:	48 89 ef             	mov    rdi,rbp
    5764:	e8 a7 ca ff ff       	call   2210 <closedir@plt>
    5769:	4c 89 ff             	mov    rdi,r15
    576c:	e8 1f ca ff ff       	call   2190 <rmdir@plt>
    5771:	48 81 c4 b8 10 00 00 	add    rsp,0x10b8
    5778:	5b                   	pop    rbx
    5779:	5d                   	pop    rbp
    577a:	41 5c                	pop    r12
    577c:	41 5d                	pop    r13
    577e:	41 5e                	pop    r14
    5780:	41 5f                	pop    r15
    5782:	c3                   	ret    
    5783:	0f 1f 44 00 00       	nop    DWORD PTR [rax+rax*1+0x0]
    5788:	e8 73 fe ff ff       	call   5600 <__cxa_finalize@plt+0x3150>
    578d:	eb c1                	jmp    5750 <__cxa_finalize@plt+0x32a0>
    578f:	90                   	nop
    5790:	80 bf 78 20 00 00 00 	cmp    BYTE PTR [rdi+0x2078],0x0
    5797:	75 07                	jne    57a0 <__cxa_finalize@plt+0x32f0>
    5799:	c3                   	ret    
    579a:	66 0f 1f 44 00 00    	nop    WORD PTR [rax+rax*1+0x0]
    57a0:	48 81 c7 78 20 00 00 	add    rdi,0x2078
    57a7:	e9 54 fe ff ff       	jmp    5600 <__cxa_finalize@plt+0x3150>
    57ac:	0f 1f 40 00          	nop    DWORD PTR [rax+0x0]
    57b0:	41 55                	push   r13
    57b2:	48 89 f9             	mov    rcx,rdi
    57b5:	31 c0                	xor    eax,eax
    57b7:	48 8d 15 22 17 00 00 	lea    rdx,[rip+0x1722]        # 6ee0 <__cxa_finalize@plt+0x4a30>
    57be:	41 54                	push   r12
    57c0:	55                   	push   rbp
    57c1:	53                   	push   rbx
    57c2:	48 89 f3             	mov    rbx,rsi
    57c5:	be 00 10 00 00       	mov    esi,0x1000
    57ca:	48 81 ec 98 20 00 00 	sub    rsp,0x2098
    57d1:	4c 8d a4 24 90 00 00 	lea    r12,[rsp+0x90]
    57d8:	00 
    57d9:	4c 89 e7             	mov    rdi,r12
    57dc:	e8 ef c9 ff ff       	call   21d0 <snprintf@plt>
    57e1:	3d ff 0f 00 00       	cmp    eax,0xfff
    57e6:	0f 8f 34 01 00 00    	jg     5920 <__cxa_finalize@plt+0x3470>
    57ec:	48 8d ac 24 90 10 00 	lea    rbp,[rsp+0x1090]
    57f3:	00 
    57f4:	31 c0                	xor    eax,eax
    57f6:	48 89 d9             	mov    rcx,rbx
    57f9:	be 00 10 00 00       	mov    esi,0x1000
    57fe:	48 8d 15 db 16 00 00 	lea    rdx,[rip+0x16db]        # 6ee0 <__cxa_finalize@plt+0x4a30>
    5805:	48 89 ef             	mov    rdi,rbp
    5808:	e8 c3 c9 ff ff       	call   21d0 <snprintf@plt>
    580d:	3d ff 0f 00 00       	cmp    eax,0xfff
    5812:	0f 8f 08 01 00 00    	jg     5920 <__cxa_finalize@plt+0x3470>
    5818:	4c 89 e3             	mov    rbx,r12
    581b:	8b 13                	mov    edx,DWORD PTR [rbx]
    581d:	48 83 c3 04          	add    rbx,0x4
    5821:	8d 82 ff fe fe fe    	lea    eax,[rdx-0x1010101]
    5827:	f7 d2                	not    edx
    5829:	21 d0                	and    eax,edx
    582b:	25 80 80 80 80       	and    eax,0x80808080
    5830:	74 e9                	je     581b <__cxa_finalize@plt+0x336b>
    5832:	89 c2                	mov    edx,eax
    5834:	48 89 ef             	mov    rdi,rbp
    5837:	48 8d 35 b3 09 00 00 	lea    rsi,[rip+0x9b3]        # 61f1 <__cxa_finalize@plt+0x3d41>
    583e:	c1 ea 10             	shr    edx,0x10
    5841:	a9 80 80 00 00       	test   eax,0x8080
    5846:	0f 44 c2             	cmove  eax,edx
    5849:	48 8d 53 02          	lea    rdx,[rbx+0x2]
    584d:	48 0f 44 da          	cmove  rbx,rdx
    5851:	89 c1                	mov    ecx,eax
    5853:	00 c1                	add    cl,al
    5855:	48 83 db 03          	sbb    rbx,0x3
    5859:	e8 a2 cb ff ff       	call   2400 <strtok@plt>
    585e:	4c 29 e3             	sub    rbx,r12
    5861:	48 89 c5             	mov    rbp,rax
    5864:	48 85 c0             	test   rax,rax
    5867:	0f 84 c3 00 00 00    	je     5930 <__cxa_finalize@plt+0x3480>
    586d:	49 89 e5             	mov    r13,rsp
    5870:	48 89 ef             	mov    rdi,rbp
    5873:	e8 28 c9 ff ff       	call   21a0 <strlen@plt>
    5878:	48 8d 5c 03 01       	lea    rbx,[rbx+rax*1+0x1]
    587d:	48 81 fb fe 0f 00 00 	cmp    rbx,0xffe
    5884:	0f 87 96 00 00 00    	ja     5920 <__cxa_finalize@plt+0x3470>
    588a:	4c 89 e7             	mov    rdi,r12
    588d:	8b 17                	mov    edx,DWORD PTR [rdi]
    588f:	48 83 c7 04          	add    rdi,0x4
    5893:	8d 82 ff fe fe fe    	lea    eax,[rdx-0x1010101]
    5899:	f7 d2                	not    edx
    589b:	21 d0                	and    eax,edx
    589d:	25 80 80 80 80       	and    eax,0x80808080
    58a2:	74 e9                	je     588d <__cxa_finalize@plt+0x33dd>
    58a4:	89 c2                	mov    edx,eax
    58a6:	48 89 ee             	mov    rsi,rbp
    58a9:	c1 ea 10             	shr    edx,0x10
    58ac:	a9 80 80 00 00       	test   eax,0x8080
    58b1:	0f 44 c2             	cmove  eax,edx
    58b4:	48 8d 57 02          	lea    rdx,[rdi+0x2]
    58b8:	48 0f 44 fa          	cmove  rdi,rdx
    58bc:	ba 00 10 00 00       	mov    edx,0x1000
    58c1:	89 c1                	mov    ecx,eax
    58c3:	00 c1                	add    cl,al
    58c5:	b8 2f 00 00 00       	mov    eax,0x2f
    58ca:	48 83 df 03          	sbb    rdi,0x3
    58ce:	66 89 07             	mov    WORD PTR [rdi],ax
    58d1:	48 83 c7 01          	add    rdi,0x1
    58d5:	e8 a6 ca ff ff       	call   2380 <__strcpy_chk@plt>
    58da:	48 8d 35 10 09 00 00 	lea    rsi,[rip+0x910]        # 61f1 <__cxa_finalize@plt+0x3d41>
    58e1:	31 ff                	xor    edi,edi
    58e3:	e8 18 cb ff ff       	call   2400 <strtok@plt>
    58e8:	48 89 c5             	mov    rbp,rax
    58eb:	48 85 c0             	test   rax,rax
    58ee:	74 40                	je     5930 <__cxa_finalize@plt+0x3480>
    58f0:	4c 89 ea             	mov    rdx,r13
    58f3:	4c 89 e6             	mov    rsi,r12
    58f6:	bf 01 00 00 00       	mov    edi,0x1
    58fb:	e8 00 ca ff ff       	call   2300 <__xstat@plt>
    5900:	85 c0                	test   eax,eax
    5902:	0f 89 68 ff ff ff    	jns    5870 <__cxa_finalize@plt+0x33c0>
    5908:	be c0 01 00 00       	mov    esi,0x1c0
    590d:	4c 89 e7             	mov    rdi,r12
    5910:	e8 db c7 ff ff       	call   20f0 <mkdir@plt>
    5915:	e9 56 ff ff ff       	jmp    5870 <__cxa_finalize@plt+0x33c0>
    591a:	66 0f 1f 44 00 00    	nop    WORD PTR [rax+rax*1+0x0]
    5920:	48 81 c4 98 20 00 00 	add    rsp,0x2098
    5927:	31 c0                	xor    eax,eax
    5929:	5b                   	pop    rbx
    592a:	5d                   	pop    rbp
    592b:	41 5c                	pop    r12
    592d:	41 5d                	pop    r13
    592f:	c3                   	ret    
    5930:	48 89 e2             	mov    rdx,rsp
    5933:	4c 89 e6             	mov    rsi,r12
    5936:	bf 01 00 00 00       	mov    edi,0x1
    593b:	e8 c0 c9 ff ff       	call   2300 <__xstat@plt>
    5940:	85 c0                	test   eax,eax
    5942:	74 24                	je     5968 <__cxa_finalize@plt+0x34b8>
    5944:	4c 89 e7             	mov    rdi,r12
    5947:	48 8d 35 6a 19 00 00 	lea    rsi,[rip+0x196a]        # 72b8 <__cxa_finalize@plt+0x4e08>
    594e:	e8 8d ca ff ff       	call   23e0 <fopen@plt>
    5953:	48 81 c4 98 20 00 00 	add    rsp,0x2098
    595a:	5b                   	pop    rbx
    595b:	5d                   	pop    rbp
    595c:	41 5c                	pop    r12
    595e:	41 5d                	pop    r13
    5960:	c3                   	ret    
    5961:	0f 1f 80 00 00 00 00 	nop    DWORD PTR [rax+0x0]
    5968:	4c 89 e6             	mov    rsi,r12
    596b:	48 8d 3d ce 19 00 00 	lea    rdi,[rip+0x19ce]        # 7340 <__cxa_finalize@plt+0x4e90>
    5972:	e8 c9 d4 ff ff       	call   2e40 <__cxa_finalize@plt+0x990>
    5977:	eb cb                	jmp    5944 <__cxa_finalize@plt+0x3494>
    5979:	0f 1f 80 00 00 00 00 	nop    DWORD PTR [rax+0x0]
    5980:	41 54                	push   r12
    5982:	49 89 d4             	mov    r12,rdx
    5985:	55                   	push   rbp
    5986:	48 89 f5             	mov    rbp,rsi
    5989:	48 8d 35 7d 06 00 00 	lea    rsi,[rip+0x67d]        # 600d <__cxa_finalize@plt+0x3b5d>
    5990:	53                   	push   rbx
    5991:	48 81 ec 00 10 00 00 	sub    rsp,0x1000
    5998:	e8 43 ca ff ff       	call   23e0 <fopen@plt>
    599d:	4c 89 e6             	mov    rsi,r12
    59a0:	48 89 ef             	mov    rdi,rbp
    59a3:	48 89 c3             	mov    rbx,rax
    59a6:	e8 05 fe ff ff       	call   57b0 <__cxa_finalize@plt+0x3300>
    59ab:	49 89 c4             	mov    r12,rax
    59ae:	48 85 db             	test   rbx,rbx
    59b1:	0f 84 c5 00 00 00    	je     5a7c <__cxa_finalize@plt+0x35cc>
    59b7:	48 85 c0             	test   rax,rax
    59ba:	0f 84 bc 00 00 00    	je     5a7c <__cxa_finalize@plt+0x35cc>
    59c0:	48 89 e5             	mov    rbp,rsp
    59c3:	0f 1f 44 00 00       	nop    DWORD PTR [rax+rax*1+0x0]
    59c8:	48 89 df             	mov    rdi,rbx
    59cb:	e8 b0 c8 ff ff       	call   2280 <feof@plt>
    59d0:	85 c0                	test   eax,eax
    59d2:	0f 85 a0 00 00 00    	jne    5a78 <__cxa_finalize@plt+0x35c8>
    59d8:	48 89 d9             	mov    rcx,rbx
    59db:	ba 00 10 00 00       	mov    edx,0x1000
    59e0:	be 01 00 00 00       	mov    esi,0x1
    59e5:	48 89 ef             	mov    rdi,rbp
    59e8:	e8 23 c7 ff ff       	call   2110 <fread@plt>
    59ed:	48 85 c0             	test   rax,rax
    59f0:	75 1e                	jne    5a10 <__cxa_finalize@plt+0x3560>
    59f2:	48 89 df             	mov    rdi,rbx
    59f5:	e8 06 c7 ff ff       	call   2100 <ferror@plt>
    59fa:	85 c0                	test   eax,eax
    59fc:	74 ca                	je     59c8 <__cxa_finalize@plt+0x3518>
    59fe:	48 89 df             	mov    rdi,rbx
    5a01:	bd ff ff ff ff       	mov    ebp,0xffffffff
    5a06:	e8 85 c8 ff ff       	call   2290 <clearerr@plt>
    5a0b:	eb 34                	jmp    5a41 <__cxa_finalize@plt+0x3591>
    5a0d:	0f 1f 00             	nop    DWORD PTR [rax]
    5a10:	4c 89 e1             	mov    rcx,r12
    5a13:	48 89 c2             	mov    rdx,rax
    5a16:	be 01 00 00 00       	mov    esi,0x1
    5a1b:	48 89 ef             	mov    rdi,rbp
    5a1e:	e8 1d ca ff ff       	call   2440 <fwrite@plt>
    5a23:	48 85 c0             	test   rax,rax
    5a26:	74 0c                	je     5a34 <__cxa_finalize@plt+0x3584>
    5a28:	4c 89 e7             	mov    rdi,r12
    5a2b:	e8 d0 c6 ff ff       	call   2100 <ferror@plt>
    5a30:	85 c0                	test   eax,eax
    5a32:	74 94                	je     59c8 <__cxa_finalize@plt+0x3518>
    5a34:	4c 89 e7             	mov    rdi,r12
    5a37:	bd ff ff ff ff       	mov    ebp,0xffffffff
    5a3c:	e8 4f c8 ff ff       	call   2290 <clearerr@plt>
    5a41:	4c 89 e7             	mov    rdi,r12
    5a44:	e8 a7 c8 ff ff       	call   22f0 <fileno@plt>
    5a49:	be c0 01 00 00       	mov    esi,0x1c0
    5a4e:	89 c7                	mov    edi,eax
    5a50:	e8 5b c9 ff ff       	call   23b0 <fchmod@plt>
    5a55:	48 89 df             	mov    rdi,rbx
    5a58:	e8 03 c7 ff ff       	call   2160 <fclose@plt>
    5a5d:	4c 89 e7             	mov    rdi,r12
    5a60:	e8 fb c6 ff ff       	call   2160 <fclose@plt>
    5a65:	48 81 c4 00 10 00 00 	add    rsp,0x1000
    5a6c:	89 e8                	mov    eax,ebp
    5a6e:	5b                   	pop    rbx
    5a6f:	5d                   	pop    rbp
    5a70:	41 5c                	pop    r12
    5a72:	c3                   	ret    
    5a73:	0f 1f 44 00 00       	nop    DWORD PTR [rax+rax*1+0x0]
    5a78:	31 ed                	xor    ebp,ebp
    5a7a:	eb c5                	jmp    5a41 <__cxa_finalize@plt+0x3591>
    5a7c:	48 85 db             	test   rbx,rbx
    5a7f:	74 08                	je     5a89 <__cxa_finalize@plt+0x35d9>
    5a81:	48 89 df             	mov    rdi,rbx
    5a84:	e8 d7 c6 ff ff       	call   2160 <fclose@plt>
    5a89:	bd ff ff ff ff       	mov    ebp,0xffffffff
    5a8e:	4d 85 e4             	test   r12,r12
    5a91:	75 ca                	jne    5a5d <__cxa_finalize@plt+0x35ad>
    5a93:	eb d0                	jmp    5a65 <__cxa_finalize@plt+0x35b5>
    5a95:	66 66 2e 0f 1f 84 00 	data16 nop WORD PTR cs:[rax+rax*1+0x0]
    5a9c:	00 00 00 00 
    5aa0:	be 02 01 00 00       	mov    esi,0x102
    5aa5:	e9 76 c8 ff ff       	jmp    2320 <dlopen@plt>
    5aaa:	66 0f 1f 44 00 00    	nop    WORD PTR [rax+rax*1+0x0]
    5ab0:	80 bf 78 20 00 00 00 	cmp    BYTE PTR [rdi+0x2078],0x0
    5ab7:	74 0f                	je     5ac8 <__cxa_finalize@plt+0x3618>
    5ab9:	48 81 c7 78 20 00 00 	add    rdi,0x2078
    5ac0:	e9 4b f9 ff ff       	jmp    5410 <__cxa_finalize@plt+0x2f60>
    5ac5:	0f 1f 00             	nop    DWORD PTR [rax]
    5ac8:	48 81 c7 78 10 00 00 	add    rdi,0x1078
    5acf:	e9 3c f9 ff ff       	jmp    5410 <__cxa_finalize@plt+0x2f60>
    5ad4:	66 66 2e 0f 1f 84 00 	data16 nop WORD PTR cs:[rax+rax*1+0x0]
    5adb:	00 00 00 00 
    5adf:	90                   	nop
    5ae0:	53                   	push   rbx
    5ae1:	48 8d 3d d3 17 00 00 	lea    rdi,[rip+0x17d3]        # 72bb <__cxa_finalize@plt+0x4e0b>
    5ae8:	48 83 ec 20          	sub    rsp,0x20
    5aec:	e8 ef f8 ff ff       	call   53e0 <__cxa_finalize@plt+0x2f30>
    5af1:	31 d2                	xor    edx,edx
    5af3:	48 85 c0             	test   rax,rax
    5af6:	74 41                	je     5b39 <__cxa_finalize@plt+0x3689>
    5af8:	e8 53 c6 ff ff       	call   2150 <getpid@plt>
    5afd:	48 89 e3             	mov    rbx,rsp
    5b00:	b9 17 00 00 00       	mov    ecx,0x17
    5b05:	4c 8d 05 ba 17 00 00 	lea    r8,[rip+0x17ba]        # 72c6 <__cxa_finalize@plt+0x4e16>
    5b0c:	4c 63 c8             	movsxd r9,eax
    5b0f:	ba 01 00 00 00       	mov    edx,0x1
    5b14:	be 17 00 00 00       	mov    esi,0x17
    5b19:	48 89 df             	mov    rdi,rbx
    5b1c:	31 c0                	xor    eax,eax
    5b1e:	e8 2d c5 ff ff       	call   2050 <__snprintf_chk@plt>
    5b23:	ba 01 00 00 00       	mov    edx,0x1
    5b28:	48 89 de             	mov    rsi,rbx
    5b2b:	48 8d 3d 89 17 00 00 	lea    rdi,[rip+0x1789]        # 72bb <__cxa_finalize@plt+0x4e0b>
    5b32:	e8 09 c6 ff ff       	call   2140 <setenv@plt>
    5b37:	89 c2                	mov    edx,eax
    5b39:	48 83 c4 20          	add    rsp,0x20
    5b3d:	89 d0                	mov    eax,edx
    5b3f:	5b                   	pop    rbx
    5b40:	c3                   	ret    
    5b41:	66 66 2e 0f 1f 84 00 	data16 nop WORD PTR cs:[rax+rax*1+0x0]
    5b48:	00 00 00 00 
    5b4c:	0f 1f 40 00          	nop    DWORD PTR [rax+0x0]
    5b50:	41 57                	push   r15
    5b52:	41 56                	push   r14
    5b54:	41 89 d6             	mov    r14d,edx
    5b57:	41 55                	push   r13
    5b59:	49 89 f5             	mov    r13,rsi
    5b5c:	be 08 00 00 00       	mov    esi,0x8
    5b61:	41 54                	push   r12
    5b63:	55                   	push   rbp
    5b64:	48 89 cd             	mov    rbp,rcx
    5b67:	53                   	push   rbx
    5b68:	48 83 ec 28          	sub    rsp,0x28
    5b6c:	48 89 7c 24 08       	mov    QWORD PTR [rsp+0x8],rdi
    5b71:	8d 7a 01             	lea    edi,[rdx+0x1]
    5b74:	48 63 ff             	movsxd rdi,edi
    5b77:	c7 44 24 1c 00 00 00 	mov    DWORD PTR [rsp+0x1c],0x0
    5b7e:	00 
    5b7f:	e8 ac c6 ff ff       	call   2230 <calloc@plt>
    5b84:	c7 05 1e 29 01 00 00 	mov    DWORD PTR [rip+0x1291e],0x0        # 184ac <stderr@@GLIBC_2.2.5+0xe20c>
    5b8b:	00 00 00 
    5b8e:	48 89 05 1b 29 01 00 	mov    QWORD PTR [rip+0x1291b],rax        # 184b0 <stderr@@GLIBC_2.2.5+0xe210>
    5b95:	48 85 c0             	test   rax,rax
    5b98:	0f 84 0b 02 00 00    	je     5da9 <__cxa_finalize@plt+0x38f9>
    5b9e:	48 89 c3             	mov    rbx,rax
    5ba1:	45 8d 66 ff          	lea    r12d,[r14-0x1]
    5ba5:	45 31 ff             	xor    r15d,r15d
    5ba8:	45 85 f6             	test   r14d,r14d
    5bab:	7f 2f                	jg     5bdc <__cxa_finalize@plt+0x372c>
    5bad:	e9 d6 00 00 00       	jmp    5c88 <__cxa_finalize@plt+0x37d8>
    5bb2:	66 0f 1f 44 00 00    	nop    WORD PTR [rax+rax*1+0x0]
    5bb8:	48 63 15 ed 28 01 00 	movsxd rdx,DWORD PTR [rip+0x128ed]        # 184ac <stderr@@GLIBC_2.2.5+0xe20c>
    5bbf:	8d 4a 01             	lea    ecx,[rdx+0x1]
    5bc2:	48 89 04 d3          	mov    QWORD PTR [rbx+rdx*8],rax
    5bc6:	49 8d 47 01          	lea    rax,[r15+0x1]
    5bca:	89 0d dc 28 01 00    	mov    DWORD PTR [rip+0x128dc],ecx        # 184ac <stderr@@GLIBC_2.2.5+0xe20c>
    5bd0:	4d 39 e7             	cmp    r15,r12
    5bd3:	0f 84 af 00 00 00    	je     5c88 <__cxa_finalize@plt+0x37d8>
    5bd9:	49 89 c7             	mov    r15,rax
    5bdc:	4a 8b 7c fd 00       	mov    rdi,QWORD PTR [rbp+r15*8+0x0]
    5be1:	e8 7a c8 ff ff       	call   2460 <strdup@plt>
    5be6:	48 85 c0             	test   rax,rax
    5be9:	75 cd                	jne    5bb8 <__cxa_finalize@plt+0x3708>
    5beb:	e8 a0 c4 ff ff       	call   2090 <__errno_location@plt>
    5bf0:	8b 38                	mov    edi,DWORD PTR [rax]
    5bf2:	e8 79 c8 ff ff       	call   2470 <strerror@plt>
    5bf7:	44 89 fe             	mov    esi,r15d
    5bfa:	48 8d 3d a7 17 00 00 	lea    rdi,[rip+0x17a7]        # 73a8 <__cxa_finalize@plt+0x4ef8>
    5c01:	48 89 c2             	mov    rdx,rax
    5c04:	31 c0                	xor    eax,eax
    5c06:	e8 35 d2 ff ff       	call   2e40 <__cxa_finalize@plt+0x990>
    5c0b:	44 8b 25 9a 28 01 00 	mov    r12d,DWORD PTR [rip+0x1289a]        # 184ac <stderr@@GLIBC_2.2.5+0xe20c>
    5c12:	45 85 e4             	test   r12d,r12d
    5c15:	0f 8e bb 01 00 00    	jle    5dd6 <__cxa_finalize@plt+0x3926>
    5c1b:	48 8b 2d 8e 28 01 00 	mov    rbp,QWORD PTR [rip+0x1288e]        # 184b0 <stderr@@GLIBC_2.2.5+0xe210>
    5c22:	41 bd ff ff ff ff    	mov    r13d,0xffffffff
    5c28:	31 db                	xor    ebx,ebx
    5c2a:	66 0f 1f 44 00 00    	nop    WORD PTR [rax+rax*1+0x0]
    5c30:	48 8b 7c dd 00       	mov    rdi,QWORD PTR [rbp+rbx*8+0x0]
    5c35:	48 83 c3 01          	add    rbx,0x1
    5c39:	e8 32 c4 ff ff       	call   2070 <free@plt>
    5c3e:	41 39 dc             	cmp    r12d,ebx
    5c41:	7f ed                	jg     5c30 <__cxa_finalize@plt+0x3780>
    5c43:	48 89 ef             	mov    rdi,rbp
    5c46:	e8 25 c4 ff ff       	call   2070 <free@plt>
    5c4b:	45 85 ed             	test   r13d,r13d
    5c4e:	0f 88 2c 01 00 00    	js     5d80 <__cxa_finalize@plt+0x38d0>
    5c54:	8b 5c 24 1c          	mov    ebx,DWORD PTR [rsp+0x1c]
    5c58:	89 df                	mov    edi,ebx
    5c5a:	0f b6 df             	movzx  ebx,bh
    5c5d:	83 e7 7f             	and    edi,0x7f
    5c60:	74 11                	je     5c73 <__cxa_finalize@plt+0x37c3>
    5c62:	8d 47 01             	lea    eax,[rdi+0x1]
    5c65:	bb 01 00 00 00       	mov    ebx,0x1
    5c6a:	3c 01                	cmp    al,0x1
    5c6c:	7e 05                	jle    5c73 <__cxa_finalize@plt+0x37c3>
    5c6e:	e8 ed c3 ff ff       	call   2060 <raise@plt>
    5c73:	48 83 c4 28          	add    rsp,0x28
    5c77:	89 d8                	mov    eax,ebx
    5c79:	5b                   	pop    rbx
    5c7a:	5d                   	pop    rbp
    5c7b:	41 5c                	pop    r12
    5c7d:	41 5d                	pop    r13
    5c7f:	41 5e                	pop    r14
    5c81:	41 5f                	pop    r15
    5c83:	c3                   	ret    
    5c84:	0f 1f 40 00          	nop    DWORD PTR [rax+0x0]
    5c88:	e8 03 c8 ff ff       	call   2490 <fork@plt>
    5c8d:	89 c3                	mov    ebx,eax
    5c8f:	85 c0                	test   eax,eax
    5c91:	0f 88 f3 00 00 00    	js     5d8a <__cxa_finalize@plt+0x38da>
    5c97:	0f 84 98 00 00 00    	je     5d35 <__cxa_finalize@plt+0x3885>
    5c9d:	48 8d 35 26 16 00 00 	lea    rsi,[rip+0x1626]        # 72ca <__cxa_finalize@plt+0x4e1a>
    5ca4:	4c 89 ef             	mov    rdi,r13
    5ca7:	89 1d fb 27 01 00    	mov    DWORD PTR [rip+0x127fb],ebx        # 184a8 <stderr@@GLIBC_2.2.5+0xe208>
    5cad:	48 8d 2d 2c f6 ff ff 	lea    rbp,[rip+0xfffffffffffff62c]        # 52e0 <__cxa_finalize@plt+0x2e30>
    5cb4:	e8 07 d0 ff ff       	call   2cc0 <__cxa_finalize@plt+0x810>
    5cb9:	48 85 c0             	test   rax,rax
    5cbc:	48 8d 05 2d f6 ff ff 	lea    rax,[rip+0xfffffffffffff62d]        # 52f0 <__cxa_finalize@plt+0x2e40>
    5cc3:	48 0f 44 e8          	cmove  rbp,rax
    5cc7:	31 db                	xor    ebx,ebx
    5cc9:	0f 1f 80 00 00 00 00 	nop    DWORD PTR [rax+0x0]
    5cd0:	83 fb 11             	cmp    ebx,0x11
    5cd3:	74 0f                	je     5ce4 <__cxa_finalize@plt+0x3834>
    5cd5:	83 fb 14             	cmp    ebx,0x14
    5cd8:	74 0a                	je     5ce4 <__cxa_finalize@plt+0x3834>
    5cda:	48 89 ee             	mov    rsi,rbp
    5cdd:	89 df                	mov    edi,ebx
    5cdf:	e8 6c c5 ff ff       	call   2250 <signal@plt>
    5ce4:	83 c3 01             	add    ebx,0x1
    5ce7:	83 fb 41             	cmp    ebx,0x41
    5cea:	75 e4                	jne    5cd0 <__cxa_finalize@plt+0x3820>
    5cec:	8b 3d b6 27 01 00    	mov    edi,DWORD PTR [rip+0x127b6]        # 184a8 <stderr@@GLIBC_2.2.5+0xe208>
    5cf2:	48 8d 74 24 1c       	lea    rsi,[rsp+0x1c]
    5cf7:	31 d2                	xor    edx,edx
    5cf9:	31 db                	xor    ebx,ebx
    5cfb:	e8 d0 c6 ff ff       	call   23d0 <waitpid@plt>
    5d00:	41 89 c5             	mov    r13d,eax
    5d03:	0f 1f 44 00 00       	nop    DWORD PTR [rax+rax*1+0x0]
    5d08:	89 df                	mov    edi,ebx
    5d0a:	31 f6                	xor    esi,esi
    5d0c:	83 c3 01             	add    ebx,0x1
    5d0f:	e8 3c c5 ff ff       	call   2250 <signal@plt>
    5d14:	83 fb 41             	cmp    ebx,0x41
    5d17:	75 ef                	jne    5d08 <__cxa_finalize@plt+0x3858>
    5d19:	44 8b 25 8c 27 01 00 	mov    r12d,DWORD PTR [rip+0x1278c]        # 184ac <stderr@@GLIBC_2.2.5+0xe20c>
    5d20:	48 8b 2d 89 27 01 00 	mov    rbp,QWORD PTR [rip+0x12789]        # 184b0 <stderr@@GLIBC_2.2.5+0xe210>
    5d27:	45 85 e4             	test   r12d,r12d
    5d2a:	0f 8f f8 fe ff ff    	jg     5c28 <__cxa_finalize@plt+0x3778>
    5d30:	e9 0e ff ff ff       	jmp    5c43 <__cxa_finalize@plt+0x3793>
    5d35:	31 c0                	xor    eax,eax
    5d37:	e8 a4 fd ff ff       	call   5ae0 <__cxa_finalize@plt+0x3630>
    5d3c:	48 8b 2d 6d 27 01 00 	mov    rbp,QWORD PTR [rip+0x1276d]        # 184b0 <stderr@@GLIBC_2.2.5+0xe210>
    5d43:	48 8b 7c 24 08       	mov    rdi,QWORD PTR [rsp+0x8]
    5d48:	48 89 ee             	mov    rsi,rbp
    5d4b:	e8 d0 c6 ff ff       	call   2420 <execvp@plt>
    5d50:	85 c0                	test   eax,eax
    5d52:	0f 89 45 ff ff ff    	jns    5c9d <__cxa_finalize@plt+0x37ed>
    5d58:	44 8b 25 4d 27 01 00 	mov    r12d,DWORD PTR [rip+0x1274d]        # 184ac <stderr@@GLIBC_2.2.5+0xe20c>
    5d5f:	41 bd ff ff ff ff    	mov    r13d,0xffffffff
    5d65:	45 85 e4             	test   r12d,r12d
    5d68:	0f 8f ba fe ff ff    	jg     5c28 <__cxa_finalize@plt+0x3778>
    5d6e:	48 89 ef             	mov    rdi,rbp
    5d71:	bb 01 00 00 00       	mov    ebx,0x1
    5d76:	e8 f5 c2 ff ff       	call   2070 <free@plt>
    5d7b:	e9 f3 fe ff ff       	jmp    5c73 <__cxa_finalize@plt+0x37c3>
    5d80:	bb 01 00 00 00       	mov    ebx,0x1
    5d85:	e9 e9 fe ff ff       	jmp    5c73 <__cxa_finalize@plt+0x37c3>
    5d8a:	44 8b 25 1b 27 01 00 	mov    r12d,DWORD PTR [rip+0x1271b]        # 184ac <stderr@@GLIBC_2.2.5+0xe20c>
    5d91:	48 8b 2d 18 27 01 00 	mov    rbp,QWORD PTR [rip+0x12718]        # 184b0 <stderr@@GLIBC_2.2.5+0xe210>
    5d98:	41 bd ff ff ff ff    	mov    r13d,0xffffffff
    5d9e:	45 85 e4             	test   r12d,r12d
    5da1:	0f 8f 81 fe ff ff    	jg     5c28 <__cxa_finalize@plt+0x3778>
    5da7:	eb c5                	jmp    5d6e <__cxa_finalize@plt+0x38be>
    5da9:	e8 e2 c2 ff ff       	call   2090 <__errno_location@plt>
    5dae:	8b 38                	mov    edi,DWORD PTR [rax]
    5db0:	e8 bb c6 ff ff       	call   2470 <strerror@plt>
    5db5:	48 8d 3d bc 15 00 00 	lea    rdi,[rip+0x15bc]        # 7378 <__cxa_finalize@plt+0x4ec8>
    5dbc:	48 89 c6             	mov    rsi,rax
    5dbf:	31 c0                	xor    eax,eax
    5dc1:	e8 7a d0 ff ff       	call   2e40 <__cxa_finalize@plt+0x990>
    5dc6:	44 8b 25 df 26 01 00 	mov    r12d,DWORD PTR [rip+0x126df]        # 184ac <stderr@@GLIBC_2.2.5+0xe20c>
    5dcd:	45 85 e4             	test   r12d,r12d
    5dd0:	0f 8f 45 fe ff ff    	jg     5c1b <__cxa_finalize@plt+0x376b>
    5dd6:	48 8b 3d d3 26 01 00 	mov    rdi,QWORD PTR [rip+0x126d3]        # 184b0 <stderr@@GLIBC_2.2.5+0xe210>
    5ddd:	bb 01 00 00 00       	mov    ebx,0x1
    5de2:	e8 89 c2 ff ff       	call   2070 <free@plt>
    5de7:	e9 87 fe ff ff       	jmp    5c73 <__cxa_finalize@plt+0x37c3>
    5dec:	0f 1f 40 00          	nop    DWORD PTR [rax+0x0]
    5df0:	41 57                	push   r15
    5df2:	49 89 d7             	mov    r15,rdx
    5df5:	41 56                	push   r14
    5df7:	49 89 f6             	mov    r14,rsi
    5dfa:	41 55                	push   r13
    5dfc:	41 89 fd             	mov    r13d,edi
    5dff:	41 54                	push   r12
    5e01:	4c 8d 25 68 3f 00 00 	lea    r12,[rip+0x3f68]        # 9d70 <__cxa_finalize@plt+0x78c0>
    5e08:	55                   	push   rbp
    5e09:	48 8d 2d 68 3f 00 00 	lea    rbp,[rip+0x3f68]        # 9d78 <__cxa_finalize@plt+0x78c8>
    5e10:	53                   	push   rbx
    5e11:	4c 29 e5             	sub    rbp,r12
    5e14:	48 83 ec 08          	sub    rsp,0x8
    5e18:	e8 e3 c1 ff ff       	call   2000 <__strcat_chk@plt-0x30>
    5e1d:	48 c1 fd 03          	sar    rbp,0x3
    5e21:	74 1b                	je     5e3e <__cxa_finalize@plt+0x398e>
    5e23:	31 db                	xor    ebx,ebx
    5e25:	0f 1f 00             	nop    DWORD PTR [rax]
    5e28:	4c 89 fa             	mov    rdx,r15
    5e2b:	4c 89 f6             	mov    rsi,r14
    5e2e:	44 89 ef             	mov    edi,r13d
    5e31:	41 ff 14 dc          	call   QWORD PTR [r12+rbx*8]
    5e35:	48 83 c3 01          	add    rbx,0x1
    5e39:	48 39 dd             	cmp    rbp,rbx
    5e3c:	75 ea                	jne    5e28 <__cxa_finalize@plt+0x3978>
    5e3e:	48 83 c4 08          	add    rsp,0x8
    5e42:	5b                   	pop    rbx
    5e43:	5d                   	pop    rbp
    5e44:	41 5c                	pop    r12
    5e46:	41 5d                	pop    r13
    5e48:	41 5e                	pop    r14
    5e4a:	41 5f                	pop    r15
    5e4c:	c3                   	ret    
    5e4d:	0f 1f 00             	nop    DWORD PTR [rax]
    5e50:	c3                   	ret    

Disassembly of section .fini:

0000000000005e54 <.fini>:
    5e54:	48 83 ec 08          	sub    rsp,0x8
    5e58:	48 83 c4 08          	add    rsp,0x8
    5e5c:	c3                   	ret    
