
void:     file format elf64-x86-64


Disassembly of section .init:

0000000000401000 <_init>:
  401000:	48 83 ec 08          	sub    rsp,0x8
  401004:	48 8b 05 ed 21 00 00 	mov    rax,QWORD PTR [rip+0x21ed]        # 4031f8 <__gmon_start__@Base>
  40100b:	48 85 c0             	test   rax,rax
  40100e:	74 02                	je     401012 <_init+0x12>
  401010:	ff d0                	call   rax
  401012:	48 83 c4 08          	add    rsp,0x8
  401016:	c3                   	ret    

Disassembly of section .plt:

0000000000401020 <read@plt-0x10>:
  401020:	ff 35 e2 2f 00 00    	push   QWORD PTR [rip+0x2fe2]        # 404008 <_GLOBAL_OFFSET_TABLE_+0x8>
  401026:	ff 25 e4 2f 00 00    	jmp    QWORD PTR [rip+0x2fe4]        # 404010 <_GLOBAL_OFFSET_TABLE_+0x10>
  40102c:	0f 1f 40 00          	nop    DWORD PTR [rax+0x0]

0000000000401030 <read@plt>:
  401030:	ff 25 e2 2f 00 00    	jmp    QWORD PTR [rip+0x2fe2]        # 404018 <read@GLIBC_2.2.5>
  401036:	68 00 00 00 00       	push   0x0
  40103b:	e9 e0 ff ff ff       	jmp    401020 <_init+0x20>

Disassembly of section .text:

0000000000401040 <_start>:
  401040:	31 ed                	xor    ebp,ebp
  401042:	49 89 d1             	mov    r9,rdx
  401045:	5e                   	pop    rsi
  401046:	48 89 e2             	mov    rdx,rsp
  401049:	48 83 e4 f0          	and    rsp,0xfffffffffffffff0
  40104d:	50                   	push   rax
  40104e:	54                   	push   rsp
  40104f:	49 c7 c0 c0 11 40 00 	mov    r8,0x4011c0
  401056:	48 c7 c1 60 11 40 00 	mov    rcx,0x401160
  40105d:	48 c7 c7 43 11 40 00 	mov    rdi,0x401143
  401064:	ff 15 86 21 00 00    	call   QWORD PTR [rip+0x2186]        # 4031f0 <__libc_start_main@GLIBC_2.2.5>
  40106a:	f4                   	hlt    
  40106b:	0f 1f 44 00 00       	nop    DWORD PTR [rax+rax*1+0x0]

0000000000401070 <_dl_relocate_static_pie>:
  401070:	c3                   	ret    
  401071:	66 2e 0f 1f 84 00 00 	nop    WORD PTR cs:[rax+rax*1+0x0]
  401078:	00 00 00 
  40107b:	0f 1f 44 00 00       	nop    DWORD PTR [rax+rax*1+0x0]

0000000000401080 <deregister_tm_clones>:
  401080:	b8 30 40 40 00       	mov    eax,0x404030
  401085:	48 3d 30 40 40 00    	cmp    rax,0x404030
  40108b:	74 13                	je     4010a0 <deregister_tm_clones+0x20>
  40108d:	b8 00 00 00 00       	mov    eax,0x0
  401092:	48 85 c0             	test   rax,rax
  401095:	74 09                	je     4010a0 <deregister_tm_clones+0x20>
  401097:	bf 30 40 40 00       	mov    edi,0x404030
  40109c:	ff e0                	jmp    rax
  40109e:	66 90                	xchg   ax,ax
  4010a0:	c3                   	ret    
  4010a1:	66 66 2e 0f 1f 84 00 	data16 nop WORD PTR cs:[rax+rax*1+0x0]
  4010a8:	00 00 00 00 
  4010ac:	0f 1f 40 00          	nop    DWORD PTR [rax+0x0]

00000000004010b0 <register_tm_clones>:
  4010b0:	be 30 40 40 00       	mov    esi,0x404030
  4010b5:	48 81 ee 30 40 40 00 	sub    rsi,0x404030
  4010bc:	48 89 f0             	mov    rax,rsi
  4010bf:	48 c1 ee 3f          	shr    rsi,0x3f
  4010c3:	48 c1 f8 03          	sar    rax,0x3
  4010c7:	48 01 c6             	add    rsi,rax
  4010ca:	48 d1 fe             	sar    rsi,1
  4010cd:	74 11                	je     4010e0 <register_tm_clones+0x30>
  4010cf:	b8 00 00 00 00       	mov    eax,0x0
  4010d4:	48 85 c0             	test   rax,rax
  4010d7:	74 07                	je     4010e0 <register_tm_clones+0x30>
  4010d9:	bf 30 40 40 00       	mov    edi,0x404030
  4010de:	ff e0                	jmp    rax
  4010e0:	c3                   	ret    
  4010e1:	66 66 2e 0f 1f 84 00 	data16 nop WORD PTR cs:[rax+rax*1+0x0]
  4010e8:	00 00 00 00 
  4010ec:	0f 1f 40 00          	nop    DWORD PTR [rax+0x0]

00000000004010f0 <__do_global_dtors_aux>:
  4010f0:	80 3d 39 2f 00 00 00 	cmp    BYTE PTR [rip+0x2f39],0x0        # 404030 <__TMC_END__>
  4010f7:	75 17                	jne    401110 <__do_global_dtors_aux+0x20>
  4010f9:	55                   	push   rbp
  4010fa:	48 89 e5             	mov    rbp,rsp
  4010fd:	e8 7e ff ff ff       	call   401080 <deregister_tm_clones>
  401102:	c6 05 27 2f 00 00 01 	mov    BYTE PTR [rip+0x2f27],0x1        # 404030 <__TMC_END__>
  401109:	5d                   	pop    rbp
  40110a:	c3                   	ret    
  40110b:	0f 1f 44 00 00       	nop    DWORD PTR [rax+rax*1+0x0]
  401110:	c3                   	ret    
  401111:	66 66 2e 0f 1f 84 00 	data16 nop WORD PTR cs:[rax+rax*1+0x0]
  401118:	00 00 00 00 
  40111c:	0f 1f 40 00          	nop    DWORD PTR [rax+0x0]

0000000000401120 <frame_dummy>:
  401120:	eb 8e                	jmp    4010b0 <register_tm_clones>

0000000000401122 <vuln>:
  401122:	55                   	push   rbp
  401123:	48 89 e5             	mov    rbp,rsp
  401126:	48 83 ec 40          	sub    rsp,0x40
  40112a:	48 8d 45 c0          	lea    rax,[rbp-0x40]
  40112e:	ba c8 00 00 00       	mov    edx,0xc8
  401133:	48 89 c6             	mov    rsi,rax
  401136:	bf 00 00 00 00       	mov    edi,0x0
  40113b:	e8 f0 fe ff ff       	call   401030 <read@plt>
  401140:	90                   	nop
  401141:	c9                   	leave  
  401142:	c3                   	ret    

0000000000401143 <main>:
  401143:	55                   	push   rbp
  401144:	48 89 e5             	mov    rbp,rsp
  401147:	48 83 ec 10          	sub    rsp,0x10
  40114b:	89 7d fc             	mov    DWORD PTR [rbp-0x4],edi
  40114e:	48 89 75 f0          	mov    QWORD PTR [rbp-0x10],rsi
  401152:	e8 cb ff ff ff       	call   401122 <vuln>
  401157:	b8 00 00 00 00       	mov    eax,0x0
  40115c:	c9                   	leave  
  40115d:	c3                   	ret    
  40115e:	66 90                	xchg   ax,ax

0000000000401160 <__libc_csu_init>:
  401160:	41 57                	push   r15
  401162:	4c 8d 3d 97 1e 00 00 	lea    r15,[rip+0x1e97]        # 403000 <__frame_dummy_init_array_entry>
  401169:	41 56                	push   r14
  40116b:	49 89 d6             	mov    r14,rdx
  40116e:	41 55                	push   r13
  401170:	49 89 f5             	mov    r13,rsi
  401173:	41 54                	push   r12
  401175:	41 89 fc             	mov    r12d,edi
  401178:	55                   	push   rbp
  401179:	48 8d 2d 88 1e 00 00 	lea    rbp,[rip+0x1e88]        # 403008 <__do_global_dtors_aux_fini_array_entry>
  401180:	53                   	push   rbx
  401181:	4c 29 fd             	sub    rbp,r15
  401184:	48 83 ec 08          	sub    rsp,0x8
  401188:	e8 73 fe ff ff       	call   401000 <_init>
  40118d:	48 c1 fd 03          	sar    rbp,0x3
  401191:	74 1b                	je     4011ae <__libc_csu_init+0x4e>
  401193:	31 db                	xor    ebx,ebx
  401195:	0f 1f 00             	nop    DWORD PTR [rax]
  401198:	4c 89 f2             	mov    rdx,r14
  40119b:	4c 89 ee             	mov    rsi,r13
  40119e:	44 89 e7             	mov    edi,r12d
  4011a1:	41 ff 14 df          	call   QWORD PTR [r15+rbx*8]
  4011a5:	48 83 c3 01          	add    rbx,0x1
  4011a9:	48 39 dd             	cmp    rbp,rbx
  4011ac:	75 ea                	jne    401198 <__libc_csu_init+0x38>
  4011ae:	48 83 c4 08          	add    rsp,0x8
  4011b2:	5b                   	pop    rbx
  4011b3:	5d                   	pop    rbp
  4011b4:	41 5c                	pop    r12
  4011b6:	41 5d                	pop    r13
  4011b8:	41 5e                	pop    r14
  4011ba:	41 5f                	pop    r15
  4011bc:	c3                   	ret    
  4011bd:	0f 1f 00             	nop    DWORD PTR [rax]

00000000004011c0 <__libc_csu_fini>:
  4011c0:	c3                   	ret    

Disassembly of section .fini:

00000000004011c4 <_fini>:
  4011c4:	48 83 ec 08          	sub    rsp,0x8
  4011c8:	48 83 c4 08          	add    rsp,0x8
  4011cc:	c3                   	ret    
